	.file	"Run6-4.cpp"
	.text
	.section	.text._ZNKSt5ctypeIcE8do_widenEc,"axG",@progbits,_ZNKSt5ctypeIcE8do_widenEc,comdat
	.align 2
	.p2align 4
	.weak	_ZNKSt5ctypeIcE8do_widenEc
	.type	_ZNKSt5ctypeIcE8do_widenEc, @function
_ZNKSt5ctypeIcE8do_widenEc:
.LFB1565:
	.cfi_startproc
	endbr64
	movl	%esi, %eax
	ret
	.cfi_endproc
.LFE1565:
	.size	_ZNKSt5ctypeIcE8do_widenEc, .-_ZNKSt5ctypeIcE8do_widenEc
	.section	.text._ZN3MPI8DatatypeD2Ev,"axG",@progbits,_ZN3MPI8DatatypeD5Ev,comdat
	.align 2
	.p2align 4
	.weak	_ZN3MPI8DatatypeD2Ev
	.type	_ZN3MPI8DatatypeD2Ev, @function
_ZN3MPI8DatatypeD2Ev:
.LFB3497:
	.cfi_startproc
	endbr64
	ret
	.cfi_endproc
.LFE3497:
	.size	_ZN3MPI8DatatypeD2Ev, .-_ZN3MPI8DatatypeD2Ev
	.weak	_ZN3MPI8DatatypeD1Ev
	.set	_ZN3MPI8DatatypeD1Ev,_ZN3MPI8DatatypeD2Ev
	.section	.text._ZN3MPI6StatusD2Ev,"axG",@progbits,_ZN3MPI6StatusD5Ev,comdat
	.align 2
	.p2align 4
	.weak	_ZN3MPI6StatusD2Ev
	.type	_ZN3MPI6StatusD2Ev, @function
_ZN3MPI6StatusD2Ev:
.LFB3533:
	.cfi_startproc
	endbr64
	ret
	.cfi_endproc
.LFE3533:
	.size	_ZN3MPI6StatusD2Ev, .-_ZN3MPI6StatusD2Ev
	.weak	_ZN3MPI6StatusD1Ev
	.set	_ZN3MPI6StatusD1Ev,_ZN3MPI6StatusD2Ev
	.section	.text._ZN3MPI7RequestD2Ev,"axG",@progbits,_ZN3MPI7RequestD5Ev,comdat
	.align 2
	.p2align 4
	.weak	_ZN3MPI7RequestD2Ev
	.type	_ZN3MPI7RequestD2Ev, @function
_ZN3MPI7RequestD2Ev:
.LFB3543:
	.cfi_startproc
	endbr64
	ret
	.cfi_endproc
.LFE3543:
	.size	_ZN3MPI7RequestD2Ev, .-_ZN3MPI7RequestD2Ev
	.weak	_ZN3MPI7RequestD1Ev
	.set	_ZN3MPI7RequestD1Ev,_ZN3MPI7RequestD2Ev
	.section	.text._ZN3MPI8PrequestD2Ev,"axG",@progbits,_ZN3MPI8PrequestD5Ev,comdat
	.align 2
	.p2align 4
	.weak	_ZN3MPI8PrequestD2Ev
	.type	_ZN3MPI8PrequestD2Ev, @function
_ZN3MPI8PrequestD2Ev:
.LFB3567:
	.cfi_startproc
	endbr64
	ret
	.cfi_endproc
.LFE3567:
	.size	_ZN3MPI8PrequestD2Ev, .-_ZN3MPI8PrequestD2Ev
	.weak	_ZN3MPI8PrequestD1Ev
	.set	_ZN3MPI8PrequestD1Ev,_ZN3MPI8PrequestD2Ev
	.section	.text._ZN3MPI8GrequestD2Ev,"axG",@progbits,_ZN3MPI8GrequestD5Ev,comdat
	.align 2
	.p2align 4
	.weak	_ZN3MPI8GrequestD2Ev
	.type	_ZN3MPI8GrequestD2Ev, @function
_ZN3MPI8GrequestD2Ev:
.LFB3582:
	.cfi_startproc
	endbr64
	ret
	.cfi_endproc
.LFE3582:
	.size	_ZN3MPI8GrequestD2Ev, .-_ZN3MPI8GrequestD2Ev
	.weak	_ZN3MPI8GrequestD1Ev
	.set	_ZN3MPI8GrequestD1Ev,_ZN3MPI8GrequestD2Ev
	.section	.text._ZN3MPI5GroupD2Ev,"axG",@progbits,_ZN3MPI5GroupD5Ev,comdat
	.align 2
	.p2align 4
	.weak	_ZN3MPI5GroupD2Ev
	.type	_ZN3MPI5GroupD2Ev, @function
_ZN3MPI5GroupD2Ev:
.LFB3597:
	.cfi_startproc
	endbr64
	ret
	.cfi_endproc
.LFE3597:
	.size	_ZN3MPI5GroupD2Ev, .-_ZN3MPI5GroupD2Ev
	.weak	_ZN3MPI5GroupD1Ev
	.set	_ZN3MPI5GroupD1Ev,_ZN3MPI5GroupD2Ev
	.section	.text._ZN3MPI3WinD2Ev,"axG",@progbits,_ZN3MPI3WinD5Ev,comdat
	.align 2
	.p2align 4
	.weak	_ZN3MPI3WinD2Ev
	.type	_ZN3MPI3WinD2Ev, @function
_ZN3MPI3WinD2Ev:
.LFB3638:
	.cfi_startproc
	endbr64
	ret
	.cfi_endproc
.LFE3638:
	.size	_ZN3MPI3WinD2Ev, .-_ZN3MPI3WinD2Ev
	.weak	_ZN3MPI3WinD1Ev
	.set	_ZN3MPI3WinD1Ev,_ZN3MPI3WinD2Ev
	.section	.text._ZN3MPI10ErrhandlerD2Ev,"axG",@progbits,_ZN3MPI10ErrhandlerD5Ev,comdat
	.align 2
	.p2align 4
	.weak	_ZN3MPI10ErrhandlerD2Ev
	.type	_ZN3MPI10ErrhandlerD2Ev, @function
_ZN3MPI10ErrhandlerD2Ev:
.LFB3664:
	.cfi_startproc
	endbr64
	ret
	.cfi_endproc
.LFE3664:
	.size	_ZN3MPI10ErrhandlerD2Ev, .-_ZN3MPI10ErrhandlerD2Ev
	.weak	_ZN3MPI10ErrhandlerD1Ev
	.set	_ZN3MPI10ErrhandlerD1Ev,_ZN3MPI10ErrhandlerD2Ev
	.section	.text._ZN3MPI9IntracommD2Ev,"axG",@progbits,_ZN3MPI9IntracommD5Ev,comdat
	.align 2
	.p2align 4
	.weak	_ZN3MPI9IntracommD2Ev
	.type	_ZN3MPI9IntracommD2Ev, @function
_ZN3MPI9IntracommD2Ev:
.LFB3696:
	.cfi_startproc
	endbr64
	ret
	.cfi_endproc
.LFE3696:
	.size	_ZN3MPI9IntracommD2Ev, .-_ZN3MPI9IntracommD2Ev
	.weak	_ZN3MPI9IntracommD1Ev
	.set	_ZN3MPI9IntracommD1Ev,_ZN3MPI9IntracommD2Ev
	.section	.text._ZN3MPI4InfoD2Ev,"axG",@progbits,_ZN3MPI4InfoD5Ev,comdat
	.align 2
	.p2align 4
	.weak	_ZN3MPI4InfoD2Ev
	.type	_ZN3MPI4InfoD2Ev, @function
_ZN3MPI4InfoD2Ev:
.LFB3747:
	.cfi_startproc
	endbr64
	ret
	.cfi_endproc
.LFE3747:
	.size	_ZN3MPI4InfoD2Ev, .-_ZN3MPI4InfoD2Ev
	.weak	_ZN3MPI4InfoD1Ev
	.set	_ZN3MPI4InfoD1Ev,_ZN3MPI4InfoD2Ev
	.section	.text._ZN3MPI2OpD2Ev,"axG",@progbits,_ZN3MPI2OpD5Ev,comdat
	.align 2
	.p2align 4
	.weak	_ZN3MPI2OpD2Ev
	.type	_ZN3MPI2OpD2Ev, @function
_ZN3MPI2OpD2Ev:
.LFB4007:
	.cfi_startproc
	endbr64
	ret
	.cfi_endproc
.LFE4007:
	.size	_ZN3MPI2OpD2Ev, .-_ZN3MPI2OpD2Ev
	.weak	_ZN3MPI2OpD1Ev
	.set	_ZN3MPI2OpD1Ev,_ZN3MPI2OpD2Ev
	.section	.text._ZNK3MPI6Status10Get_sourceEv,"axG",@progbits,_ZNK3MPI6Status10Get_sourceEv,comdat
	.align 2
	.p2align 4
	.weak	_ZNK3MPI6Status10Get_sourceEv
	.type	_ZNK3MPI6Status10Get_sourceEv, @function
_ZNK3MPI6Status10Get_sourceEv:
.LFB4023:
	.cfi_startproc
	endbr64
	movl	8(%rdi), %eax
	ret
	.cfi_endproc
.LFE4023:
	.size	_ZNK3MPI6Status10Get_sourceEv, .-_ZNK3MPI6Status10Get_sourceEv
	.section	.text._ZN3MPI6Status10Set_sourceEi,"axG",@progbits,_ZN3MPI6Status10Set_sourceEi,comdat
	.align 2
	.p2align 4
	.weak	_ZN3MPI6Status10Set_sourceEi
	.type	_ZN3MPI6Status10Set_sourceEi, @function
_ZN3MPI6Status10Set_sourceEi:
.LFB4024:
	.cfi_startproc
	endbr64
	movl	%esi, 8(%rdi)
	ret
	.cfi_endproc
.LFE4024:
	.size	_ZN3MPI6Status10Set_sourceEi, .-_ZN3MPI6Status10Set_sourceEi
	.section	.text._ZNK3MPI6Status7Get_tagEv,"axG",@progbits,_ZNK3MPI6Status7Get_tagEv,comdat
	.align 2
	.p2align 4
	.weak	_ZNK3MPI6Status7Get_tagEv
	.type	_ZNK3MPI6Status7Get_tagEv, @function
_ZNK3MPI6Status7Get_tagEv:
.LFB4025:
	.cfi_startproc
	endbr64
	movl	12(%rdi), %eax
	ret
	.cfi_endproc
.LFE4025:
	.size	_ZNK3MPI6Status7Get_tagEv, .-_ZNK3MPI6Status7Get_tagEv
	.section	.text._ZN3MPI6Status7Set_tagEi,"axG",@progbits,_ZN3MPI6Status7Set_tagEi,comdat
	.align 2
	.p2align 4
	.weak	_ZN3MPI6Status7Set_tagEi
	.type	_ZN3MPI6Status7Set_tagEi, @function
_ZN3MPI6Status7Set_tagEi:
.LFB4026:
	.cfi_startproc
	endbr64
	movl	%esi, 12(%rdi)
	ret
	.cfi_endproc
.LFE4026:
	.size	_ZN3MPI6Status7Set_tagEi, .-_ZN3MPI6Status7Set_tagEi
	.section	.text._ZNK3MPI6Status9Get_errorEv,"axG",@progbits,_ZNK3MPI6Status9Get_errorEv,comdat
	.align 2
	.p2align 4
	.weak	_ZNK3MPI6Status9Get_errorEv
	.type	_ZNK3MPI6Status9Get_errorEv, @function
_ZNK3MPI6Status9Get_errorEv:
.LFB4027:
	.cfi_startproc
	endbr64
	movl	16(%rdi), %eax
	ret
	.cfi_endproc
.LFE4027:
	.size	_ZNK3MPI6Status9Get_errorEv, .-_ZNK3MPI6Status9Get_errorEv
	.section	.text._ZN3MPI6Status9Set_errorEi,"axG",@progbits,_ZN3MPI6Status9Set_errorEi,comdat
	.align 2
	.p2align 4
	.weak	_ZN3MPI6Status9Set_errorEi
	.type	_ZN3MPI6Status9Set_errorEi, @function
_ZN3MPI6Status9Set_errorEi:
.LFB4028:
	.cfi_startproc
	endbr64
	movl	%esi, 16(%rdi)
	ret
	.cfi_endproc
.LFE4028:
	.size	_ZN3MPI6Status9Set_errorEi, .-_ZN3MPI6Status9Set_errorEi
	.section	.text._ZN3MPI9IntercommD2Ev,"axG",@progbits,_ZN3MPI9IntercommD5Ev,comdat
	.align 2
	.p2align 4
	.weak	_ZN3MPI9IntercommD2Ev
	.type	_ZN3MPI9IntercommD2Ev, @function
_ZN3MPI9IntercommD2Ev:
.LFB5292:
	.cfi_startproc
	endbr64
	ret
	.cfi_endproc
.LFE5292:
	.size	_ZN3MPI9IntercommD2Ev, .-_ZN3MPI9IntercommD2Ev
	.weak	_ZN3MPI9IntercommD1Ev
	.set	_ZN3MPI9IntercommD1Ev,_ZN3MPI9IntercommD2Ev
	.section	.text._ZN3MPI9GraphcommD2Ev,"axG",@progbits,_ZN3MPI9GraphcommD5Ev,comdat
	.align 2
	.p2align 4
	.weak	_ZN3MPI9GraphcommD2Ev
	.type	_ZN3MPI9GraphcommD2Ev, @function
_ZN3MPI9GraphcommD2Ev:
.LFB5296:
	.cfi_startproc
	endbr64
	ret
	.cfi_endproc
.LFE5296:
	.size	_ZN3MPI9GraphcommD2Ev, .-_ZN3MPI9GraphcommD2Ev
	.weak	_ZN3MPI9GraphcommD1Ev
	.set	_ZN3MPI9GraphcommD1Ev,_ZN3MPI9GraphcommD2Ev
	.section	.text._ZN3MPI8CartcommD2Ev,"axG",@progbits,_ZN3MPI8CartcommD5Ev,comdat
	.align 2
	.p2align 4
	.weak	_ZN3MPI8CartcommD2Ev
	.type	_ZN3MPI8CartcommD2Ev, @function
_ZN3MPI8CartcommD2Ev:
.LFB5300:
	.cfi_startproc
	endbr64
	ret
	.cfi_endproc
.LFE5300:
	.size	_ZN3MPI8CartcommD2Ev, .-_ZN3MPI8CartcommD2Ev
	.weak	_ZN3MPI8CartcommD1Ev
	.set	_ZN3MPI8CartcommD1Ev,_ZN3MPI8CartcommD2Ev
	.section	.text._ZN3MPI3WinD0Ev,"axG",@progbits,_ZN3MPI3WinD5Ev,comdat
	.align 2
	.p2align 4
	.weak	_ZN3MPI3WinD0Ev
	.type	_ZN3MPI3WinD0Ev, @function
_ZN3MPI3WinD0Ev:
.LFB3640:
	.cfi_startproc
	endbr64
	movl	$16, %esi
	jmp	_ZdlPvm@PLT
	.cfi_endproc
.LFE3640:
	.size	_ZN3MPI3WinD0Ev, .-_ZN3MPI3WinD0Ev
	.section	.text._ZN3MPI4InfoD0Ev,"axG",@progbits,_ZN3MPI4InfoD5Ev,comdat
	.align 2
	.p2align 4
	.weak	_ZN3MPI4InfoD0Ev
	.type	_ZN3MPI4InfoD0Ev, @function
_ZN3MPI4InfoD0Ev:
.LFB3749:
	.cfi_startproc
	endbr64
	movl	$16, %esi
	jmp	_ZdlPvm@PLT
	.cfi_endproc
.LFE3749:
	.size	_ZN3MPI4InfoD0Ev, .-_ZN3MPI4InfoD0Ev
	.section	.text._ZN3MPI6StatusD0Ev,"axG",@progbits,_ZN3MPI6StatusD5Ev,comdat
	.align 2
	.p2align 4
	.weak	_ZN3MPI6StatusD0Ev
	.type	_ZN3MPI6StatusD0Ev, @function
_ZN3MPI6StatusD0Ev:
.LFB3535:
	.cfi_startproc
	endbr64
	movl	$32, %esi
	jmp	_ZdlPvm@PLT
	.cfi_endproc
.LFE3535:
	.size	_ZN3MPI6StatusD0Ev, .-_ZN3MPI6StatusD0Ev
	.section	.text._ZN3MPI10ErrhandlerD0Ev,"axG",@progbits,_ZN3MPI10ErrhandlerD5Ev,comdat
	.align 2
	.p2align 4
	.weak	_ZN3MPI10ErrhandlerD0Ev
	.type	_ZN3MPI10ErrhandlerD0Ev, @function
_ZN3MPI10ErrhandlerD0Ev:
.LFB3666:
	.cfi_startproc
	endbr64
	movl	$16, %esi
	jmp	_ZdlPvm@PLT
	.cfi_endproc
.LFE3666:
	.size	_ZN3MPI10ErrhandlerD0Ev, .-_ZN3MPI10ErrhandlerD0Ev
	.section	.text._ZN3MPI2OpD0Ev,"axG",@progbits,_ZN3MPI2OpD5Ev,comdat
	.align 2
	.p2align 4
	.weak	_ZN3MPI2OpD0Ev
	.type	_ZN3MPI2OpD0Ev, @function
_ZN3MPI2OpD0Ev:
.LFB4009:
	.cfi_startproc
	endbr64
	movl	$16, %esi
	jmp	_ZdlPvm@PLT
	.cfi_endproc
.LFE4009:
	.size	_ZN3MPI2OpD0Ev, .-_ZN3MPI2OpD0Ev
	.section	.text._ZN3MPI5GroupD0Ev,"axG",@progbits,_ZN3MPI5GroupD5Ev,comdat
	.align 2
	.p2align 4
	.weak	_ZN3MPI5GroupD0Ev
	.type	_ZN3MPI5GroupD0Ev, @function
_ZN3MPI5GroupD0Ev:
.LFB3599:
	.cfi_startproc
	endbr64
	movl	$16, %esi
	jmp	_ZdlPvm@PLT
	.cfi_endproc
.LFE3599:
	.size	_ZN3MPI5GroupD0Ev, .-_ZN3MPI5GroupD0Ev
	.section	.text._ZN3MPI8GrequestD0Ev,"axG",@progbits,_ZN3MPI8GrequestD5Ev,comdat
	.align 2
	.p2align 4
	.weak	_ZN3MPI8GrequestD0Ev
	.type	_ZN3MPI8GrequestD0Ev, @function
_ZN3MPI8GrequestD0Ev:
.LFB3584:
	.cfi_startproc
	endbr64
	movl	$16, %esi
	jmp	_ZdlPvm@PLT
	.cfi_endproc
.LFE3584:
	.size	_ZN3MPI8GrequestD0Ev, .-_ZN3MPI8GrequestD0Ev
	.section	.text._ZN3MPI7RequestD0Ev,"axG",@progbits,_ZN3MPI7RequestD5Ev,comdat
	.align 2
	.p2align 4
	.weak	_ZN3MPI7RequestD0Ev
	.type	_ZN3MPI7RequestD0Ev, @function
_ZN3MPI7RequestD0Ev:
.LFB3545:
	.cfi_startproc
	endbr64
	movl	$16, %esi
	jmp	_ZdlPvm@PLT
	.cfi_endproc
.LFE3545:
	.size	_ZN3MPI7RequestD0Ev, .-_ZN3MPI7RequestD0Ev
	.section	.text._ZN3MPI8PrequestD0Ev,"axG",@progbits,_ZN3MPI8PrequestD5Ev,comdat
	.align 2
	.p2align 4
	.weak	_ZN3MPI8PrequestD0Ev
	.type	_ZN3MPI8PrequestD0Ev, @function
_ZN3MPI8PrequestD0Ev:
.LFB3569:
	.cfi_startproc
	endbr64
	movl	$16, %esi
	jmp	_ZdlPvm@PLT
	.cfi_endproc
.LFE3569:
	.size	_ZN3MPI8PrequestD0Ev, .-_ZN3MPI8PrequestD0Ev
	.section	.text._ZN3MPI8DatatypeD0Ev,"axG",@progbits,_ZN3MPI8DatatypeD5Ev,comdat
	.align 2
	.p2align 4
	.weak	_ZN3MPI8DatatypeD0Ev
	.type	_ZN3MPI8DatatypeD0Ev, @function
_ZN3MPI8DatatypeD0Ev:
.LFB3499:
	.cfi_startproc
	endbr64
	movl	$16, %esi
	jmp	_ZdlPvm@PLT
	.cfi_endproc
.LFE3499:
	.size	_ZN3MPI8DatatypeD0Ev, .-_ZN3MPI8DatatypeD0Ev
	.section	.text._ZN3MPI9IntercommD0Ev,"axG",@progbits,_ZN3MPI9IntercommD5Ev,comdat
	.align 2
	.p2align 4
	.weak	_ZN3MPI9IntercommD0Ev
	.type	_ZN3MPI9IntercommD0Ev, @function
_ZN3MPI9IntercommD0Ev:
.LFB5294:
	.cfi_startproc
	endbr64
	movl	$16, %esi
	jmp	_ZdlPvm@PLT
	.cfi_endproc
.LFE5294:
	.size	_ZN3MPI9IntercommD0Ev, .-_ZN3MPI9IntercommD0Ev
	.section	.text._ZN3MPI9IntracommD0Ev,"axG",@progbits,_ZN3MPI9IntracommD5Ev,comdat
	.align 2
	.p2align 4
	.weak	_ZN3MPI9IntracommD0Ev
	.type	_ZN3MPI9IntracommD0Ev, @function
_ZN3MPI9IntracommD0Ev:
.LFB3698:
	.cfi_startproc
	endbr64
	movl	$16, %esi
	jmp	_ZdlPvm@PLT
	.cfi_endproc
.LFE3698:
	.size	_ZN3MPI9IntracommD0Ev, .-_ZN3MPI9IntracommD0Ev
	.section	.text._ZN3MPI9GraphcommD0Ev,"axG",@progbits,_ZN3MPI9GraphcommD5Ev,comdat
	.align 2
	.p2align 4
	.weak	_ZN3MPI9GraphcommD0Ev
	.type	_ZN3MPI9GraphcommD0Ev, @function
_ZN3MPI9GraphcommD0Ev:
.LFB5298:
	.cfi_startproc
	endbr64
	movl	$16, %esi
	jmp	_ZdlPvm@PLT
	.cfi_endproc
.LFE5298:
	.size	_ZN3MPI9GraphcommD0Ev, .-_ZN3MPI9GraphcommD0Ev
	.section	.text._ZN3MPI8CartcommD0Ev,"axG",@progbits,_ZN3MPI8CartcommD5Ev,comdat
	.align 2
	.p2align 4
	.weak	_ZN3MPI8CartcommD0Ev
	.type	_ZN3MPI8CartcommD0Ev, @function
_ZN3MPI8CartcommD0Ev:
.LFB5302:
	.cfi_startproc
	endbr64
	movl	$16, %esi
	jmp	_ZdlPvm@PLT
	.cfi_endproc
.LFE5302:
	.size	_ZN3MPI8CartcommD0Ev, .-_ZN3MPI8CartcommD0Ev
	.section	.text._ZNK3MPI4Comm8Get_rankEv,"axG",@progbits,_ZNK3MPI4Comm8Get_rankEv,comdat
	.align 2
	.p2align 4
	.weak	_ZNK3MPI4Comm8Get_rankEv
	.type	_ZNK3MPI4Comm8Get_rankEv, @function
_ZNK3MPI4Comm8Get_rankEv:
.LFB3898:
	.cfi_startproc
	endbr64
	subq	$24, %rsp
	.cfi_def_cfa_offset 32
	movq	8(%rdi), %rdi
	movq	%fs:40, %rax
	movq	%rax, 8(%rsp)
	xorl	%eax, %eax
	leaq	4(%rsp), %rsi
	call	MPI_Comm_rank@PLT
	movl	4(%rsp), %eax
	movq	8(%rsp), %rdx
	subq	%fs:40, %rdx
	jne	.L40
	addq	$24, %rsp
	.cfi_remember_state
	.cfi_def_cfa_offset 8
	ret
.L40:
	.cfi_restore_state
	call	__stack_chk_fail@PLT
	.cfi_endproc
.LFE3898:
	.size	_ZNK3MPI4Comm8Get_rankEv, .-_ZNK3MPI4Comm8Get_rankEv
	.section	.text._ZNK3MPI4Comm8Get_sizeEv,"axG",@progbits,_ZNK3MPI4Comm8Get_sizeEv,comdat
	.align 2
	.p2align 4
	.weak	_ZNK3MPI4Comm8Get_sizeEv
	.type	_ZNK3MPI4Comm8Get_sizeEv, @function
_ZNK3MPI4Comm8Get_sizeEv:
.LFB3897:
	.cfi_startproc
	endbr64
	subq	$24, %rsp
	.cfi_def_cfa_offset 32
	movq	8(%rdi), %rdi
	movq	%fs:40, %rax
	movq	%rax, 8(%rsp)
	xorl	%eax, %eax
	leaq	4(%rsp), %rsi
	call	MPI_Comm_size@PLT
	movl	4(%rsp), %eax
	movq	8(%rsp), %rdx
	subq	%fs:40, %rdx
	jne	.L44
	addq	$24, %rsp
	.cfi_remember_state
	.cfi_def_cfa_offset 8
	ret
.L44:
	.cfi_restore_state
	call	__stack_chk_fail@PLT
	.cfi_endproc
.LFE3897:
	.size	_ZNK3MPI4Comm8Get_sizeEv, .-_ZNK3MPI4Comm8Get_sizeEv
	.section	.text._ZNK3MPI4Comm7GathervEPKviRKNS_8DatatypeEPvPKiS8_S5_i,"axG",@progbits,_ZNK3MPI4Comm7GathervEPKviRKNS_8DatatypeEPvPKiS8_S5_i,comdat
	.align 2
	.p2align 4
	.weak	_ZNK3MPI4Comm7GathervEPKviRKNS_8DatatypeEPvPKiS8_S5_i
	.type	_ZNK3MPI4Comm7GathervEPKviRKNS_8DatatypeEPvPKiS8_S5_i, @function
_ZNK3MPI4Comm7GathervEPKviRKNS_8DatatypeEPvPKiS8_S5_i:
.LFB3905:
	.cfi_startproc
	endbr64
	pushq	%r12
	.cfi_def_cfa_offset 16
	.cfi_offset 12, -16
	movq	%rdi, %r11
	movq	24(%rsp), %rax
	movq	%rcx, %r12
	movl	32(%rsp), %r10d
	movq	8(%r11), %r11
	movq	%rsi, %rdi
	movl	%edx, %esi
	movq	8(%r12), %rdx
	movq	%r8, %rcx
	movq	%r9, %r8
	movq	16(%rsp), %r9
	movq	%r11, 32(%rsp)
	movl	%r10d, 24(%rsp)
	movq	8(%rax), %rax
	movq	%rax, 16(%rsp)
	popq	%r12
	.cfi_def_cfa_offset 8
	jmp	MPI_Gatherv@PLT
	.cfi_endproc
.LFE3905:
	.size	_ZNK3MPI4Comm7GathervEPKviRKNS_8DatatypeEPvPKiS8_S5_i, .-_ZNK3MPI4Comm7GathervEPKviRKNS_8DatatypeEPvPKiS8_S5_i
	.section	.text._ZN3MPI3Win8Set_nameEPKc,"axG",@progbits,_ZN3MPI3Win8Set_nameEPKc,comdat
	.align 2
	.p2align 4
	.weak	_ZN3MPI3Win8Set_nameEPKc
	.type	_ZN3MPI3Win8Set_nameEPKc, @function
_ZN3MPI3Win8Set_nameEPKc:
.LFB4066:
	.cfi_startproc
	endbr64
	movq	8(%rdi), %rdi
	jmp	MPI_Win_set_name@PLT
	.cfi_endproc
.LFE4066:
	.size	_ZN3MPI3Win8Set_nameEPKc, .-_ZN3MPI3Win8Set_nameEPKc
	.section	.text._ZN3MPI3Win8Set_attrEiPKv,"axG",@progbits,_ZN3MPI3Win8Set_attrEiPKv,comdat
	.align 2
	.p2align 4
	.weak	_ZN3MPI3Win8Set_attrEiPKv
	.type	_ZN3MPI3Win8Set_attrEiPKv, @function
_ZN3MPI3Win8Set_attrEiPKv:
.LFB4065:
	.cfi_startproc
	endbr64
	movq	8(%rdi), %rdi
	jmp	MPI_Win_set_attr@PLT
	.cfi_endproc
.LFE4065:
	.size	_ZN3MPI3Win8Set_attrEiPKv, .-_ZN3MPI3Win8Set_attrEiPKv
	.section	.text._ZNK3MPI3Win8Get_nameEPcRi,"axG",@progbits,_ZNK3MPI3Win8Get_nameEPcRi,comdat
	.align 2
	.p2align 4
	.weak	_ZNK3MPI3Win8Get_nameEPcRi
	.type	_ZNK3MPI3Win8Get_nameEPcRi, @function
_ZNK3MPI3Win8Get_nameEPcRi:
.LFB4064:
	.cfi_startproc
	endbr64
	movq	8(%rdi), %rdi
	jmp	MPI_Win_get_name@PLT
	.cfi_endproc
.LFE4064:
	.size	_ZNK3MPI3Win8Get_nameEPcRi, .-_ZNK3MPI3Win8Get_nameEPcRi
	.section	.text._ZN3MPI3Win11Delete_attrEi,"axG",@progbits,_ZN3MPI3Win11Delete_attrEi,comdat
	.align 2
	.p2align 4
	.weak	_ZN3MPI3Win11Delete_attrEi
	.type	_ZN3MPI3Win11Delete_attrEi, @function
_ZN3MPI3Win11Delete_attrEi:
.LFB4060:
	.cfi_startproc
	endbr64
	movq	8(%rdi), %rdi
	jmp	MPI_Win_delete_attr@PLT
	.cfi_endproc
.LFE4060:
	.size	_ZN3MPI3Win11Delete_attrEi, .-_ZN3MPI3Win11Delete_attrEi
	.section	.text._ZNK3MPI3Win15Call_errhandlerEi,"axG",@progbits,_ZNK3MPI3Win15Call_errhandlerEi,comdat
	.align 2
	.p2align 4
	.weak	_ZNK3MPI3Win15Call_errhandlerEi
	.type	_ZNK3MPI3Win15Call_errhandlerEi, @function
_ZNK3MPI3Win15Call_errhandlerEi:
.LFB4055:
	.cfi_startproc
	endbr64
	movq	8(%rdi), %rdi
	jmp	MPI_Win_call_errhandler@PLT
	.cfi_endproc
.LFE4055:
	.size	_ZNK3MPI3Win15Call_errhandlerEi, .-_ZNK3MPI3Win15Call_errhandlerEi
	.section	.text._ZNK3MPI3Win4WaitEv,"axG",@progbits,_ZNK3MPI3Win4WaitEv,comdat
	.align 2
	.p2align 4
	.weak	_ZNK3MPI3Win4WaitEv
	.type	_ZNK3MPI3Win4WaitEv, @function
_ZNK3MPI3Win4WaitEv:
.LFB4054:
	.cfi_startproc
	endbr64
	movq	8(%rdi), %rdi
	jmp	MPI_Win_wait@PLT
	.cfi_endproc
.LFE4054:
	.size	_ZNK3MPI3Win4WaitEv, .-_ZNK3MPI3Win4WaitEv
	.section	.text._ZNK3MPI3Win6UnlockEi,"axG",@progbits,_ZNK3MPI3Win6UnlockEi,comdat
	.align 2
	.p2align 4
	.weak	_ZNK3MPI3Win6UnlockEi
	.type	_ZNK3MPI3Win6UnlockEi, @function
_ZNK3MPI3Win6UnlockEi:
.LFB4053:
	.cfi_startproc
	endbr64
	movq	%rdi, %r8
	movl	%esi, %edi
	movq	8(%r8), %rsi
	jmp	MPI_Win_unlock@PLT
	.cfi_endproc
.LFE4053:
	.size	_ZNK3MPI3Win6UnlockEi, .-_ZNK3MPI3Win6UnlockEi
	.section	.text._ZNK3MPI3Win4TestEv,"axG",@progbits,_ZNK3MPI3Win4TestEv,comdat
	.align 2
	.p2align 4
	.weak	_ZNK3MPI3Win4TestEv
	.type	_ZNK3MPI3Win4TestEv, @function
_ZNK3MPI3Win4TestEv:
.LFB4052:
	.cfi_startproc
	endbr64
	subq	$24, %rsp
	.cfi_def_cfa_offset 32
	movq	8(%rdi), %rdi
	movq	%fs:40, %rax
	movq	%rax, 8(%rsp)
	xorl	%eax, %eax
	leaq	4(%rsp), %rsi
	call	MPI_Win_test@PLT
	movl	4(%rsp), %eax
	testl	%eax, %eax
	setne	%al
	movq	8(%rsp), %rdx
	subq	%fs:40, %rdx
	jne	.L57
	addq	$24, %rsp
	.cfi_remember_state
	.cfi_def_cfa_offset 8
	ret
.L57:
	.cfi_restore_state
	call	__stack_chk_fail@PLT
	.cfi_endproc
.LFE4052:
	.size	_ZNK3MPI3Win4TestEv, .-_ZNK3MPI3Win4TestEv
	.section	.text._ZNK3MPI3Win5StartERKNS_5GroupEi,"axG",@progbits,_ZNK3MPI3Win5StartERKNS_5GroupEi,comdat
	.align 2
	.p2align 4
	.weak	_ZNK3MPI3Win5StartERKNS_5GroupEi
	.type	_ZNK3MPI3Win5StartERKNS_5GroupEi, @function
_ZNK3MPI3Win5StartERKNS_5GroupEi:
.LFB4051:
	.cfi_startproc
	endbr64
	movq	%rsi, %r8
	movl	%edx, %esi
	movq	8(%rdi), %rdx
	movq	8(%r8), %rdi
	jmp	MPI_Win_start@PLT
	.cfi_endproc
.LFE4051:
	.size	_ZNK3MPI3Win5StartERKNS_5GroupEi, .-_ZNK3MPI3Win5StartERKNS_5GroupEi
	.section	.text._ZNK3MPI3Win3PutEPKviRKNS_8DatatypeEiliS5_,"axG",@progbits,_ZNK3MPI3Win3PutEPKviRKNS_8DatatypeEiliS5_,comdat
	.align 2
	.p2align 4
	.weak	_ZNK3MPI3Win3PutEPKviRKNS_8DatatypeEiliS5_
	.type	_ZNK3MPI3Win3PutEPKviRKNS_8DatatypeEiliS5_, @function
_ZNK3MPI3Win3PutEPKviRKNS_8DatatypeEiliS5_:
.LFB4050:
	.cfi_startproc
	endbr64
	movq	%rdi, %r10
	movq	16(%rsp), %rax
	movq	%rcx, %r11
	movq	%rsi, %rdi
	movq	8(%r10), %r10
	movl	%edx, %esi
	movl	%r8d, %ecx
	movq	8(%r11), %rdx
	movq	%r9, %r8
	movl	8(%rsp), %r9d
	movq	%r10, 16(%rsp)
	movq	8(%rax), %rax
	movq	%rax, 8(%rsp)
	jmp	MPI_Put@PLT
	.cfi_endproc
.LFE4050:
	.size	_ZNK3MPI3Win3PutEPKviRKNS_8DatatypeEiliS5_, .-_ZNK3MPI3Win3PutEPKviRKNS_8DatatypeEiliS5_
	.section	.text._ZNK3MPI3Win4PostERKNS_5GroupEi,"axG",@progbits,_ZNK3MPI3Win4PostERKNS_5GroupEi,comdat
	.align 2
	.p2align 4
	.weak	_ZNK3MPI3Win4PostERKNS_5GroupEi
	.type	_ZNK3MPI3Win4PostERKNS_5GroupEi, @function
_ZNK3MPI3Win4PostERKNS_5GroupEi:
.LFB4049:
	.cfi_startproc
	endbr64
	movq	%rsi, %r8
	movl	%edx, %esi
	movq	8(%rdi), %rdx
	movq	8(%r8), %rdi
	jmp	MPI_Win_post@PLT
	.cfi_endproc
.LFE4049:
	.size	_ZNK3MPI3Win4PostERKNS_5GroupEi, .-_ZNK3MPI3Win4PostERKNS_5GroupEi
	.section	.text._ZNK3MPI3Win4LockEiii,"axG",@progbits,_ZNK3MPI3Win4LockEiii,comdat
	.align 2
	.p2align 4
	.weak	_ZNK3MPI3Win4LockEiii
	.type	_ZNK3MPI3Win4LockEiii, @function
_ZNK3MPI3Win4LockEiii:
.LFB4048:
	.cfi_startproc
	endbr64
	movq	%rdi, %r8
	movl	%esi, %edi
	movl	%edx, %esi
	movl	%ecx, %edx
	movq	8(%r8), %rcx
	jmp	MPI_Win_lock@PLT
	.cfi_endproc
.LFE4048:
	.size	_ZNK3MPI3Win4LockEiii, .-_ZNK3MPI3Win4LockEiii
	.section	.text._ZNK3MPI3Win9Get_groupEv,"axG",@progbits,_ZNK3MPI3Win9Get_groupEv,comdat
	.align 2
	.p2align 4
	.weak	_ZNK3MPI3Win9Get_groupEv
	.type	_ZNK3MPI3Win9Get_groupEv, @function
_ZNK3MPI3Win9Get_groupEv:
.LFB4047:
	.cfi_startproc
	endbr64
	pushq	%r12
	.cfi_def_cfa_offset 16
	.cfi_offset 12, -16
	movq	%rsi, %r8
	movq	%rdi, %r12
	subq	$16, %rsp
	.cfi_def_cfa_offset 32
	movq	8(%r8), %rdi
	movq	%fs:40, %rax
	movq	%rax, 8(%rsp)
	xorl	%eax, %eax
	movq	%rsp, %rsi
	call	MPI_Win_get_group@PLT
	leaq	16+_ZTVN3MPI5GroupE(%rip), %rax
	movq	%rax, (%r12)
	movq	(%rsp), %rax
	movq	%rax, 8(%r12)
	movq	8(%rsp), %rax
	subq	%fs:40, %rax
	jne	.L65
	addq	$16, %rsp
	.cfi_remember_state
	.cfi_def_cfa_offset 16
	movq	%r12, %rax
	popq	%r12
	.cfi_def_cfa_offset 8
	ret
.L65:
	.cfi_restore_state
	call	__stack_chk_fail@PLT
	.cfi_endproc
.LFE4047:
	.size	_ZNK3MPI3Win9Get_groupEv, .-_ZNK3MPI3Win9Get_groupEv
	.section	.text._ZNK3MPI3Win3GetEPKviRKNS_8DatatypeEiliS5_,"axG",@progbits,_ZNK3MPI3Win3GetEPKviRKNS_8DatatypeEiliS5_,comdat
	.align 2
	.p2align 4
	.weak	_ZNK3MPI3Win3GetEPKviRKNS_8DatatypeEiliS5_
	.type	_ZNK3MPI3Win3GetEPKviRKNS_8DatatypeEiliS5_, @function
_ZNK3MPI3Win3GetEPKviRKNS_8DatatypeEiliS5_:
.LFB4046:
	.cfi_startproc
	endbr64
	movq	%rdi, %r10
	movq	16(%rsp), %rax
	movq	%rcx, %r11
	movq	%rsi, %rdi
	movq	8(%r10), %r10
	movl	%edx, %esi
	movl	%r8d, %ecx
	movq	8(%r11), %rdx
	movq	%r9, %r8
	movl	8(%rsp), %r9d
	movq	%r10, 16(%rsp)
	movq	8(%rax), %rax
	movq	%rax, 8(%rsp)
	jmp	MPI_Get@PLT
	.cfi_endproc
.LFE4046:
	.size	_ZNK3MPI3Win3GetEPKviRKNS_8DatatypeEiliS5_, .-_ZNK3MPI3Win3GetEPKviRKNS_8DatatypeEiliS5_
	.section	.text._ZNK3MPI3Win5FenceEi,"axG",@progbits,_ZNK3MPI3Win5FenceEi,comdat
	.align 2
	.p2align 4
	.weak	_ZNK3MPI3Win5FenceEi
	.type	_ZNK3MPI3Win5FenceEi, @function
_ZNK3MPI3Win5FenceEi:
.LFB4045:
	.cfi_startproc
	endbr64
	movq	%rdi, %r8
	movl	%esi, %edi
	movq	8(%r8), %rsi
	jmp	MPI_Win_fence@PLT
	.cfi_endproc
.LFE4045:
	.size	_ZNK3MPI3Win5FenceEi, .-_ZNK3MPI3Win5FenceEi
	.section	.text._ZNK3MPI3Win8CompleteEv,"axG",@progbits,_ZNK3MPI3Win8CompleteEv,comdat
	.align 2
	.p2align 4
	.weak	_ZNK3MPI3Win8CompleteEv
	.type	_ZNK3MPI3Win8CompleteEv, @function
_ZNK3MPI3Win8CompleteEv:
.LFB4043:
	.cfi_startproc
	endbr64
	movq	8(%rdi), %rdi
	jmp	MPI_Win_complete@PLT
	.cfi_endproc
.LFE4043:
	.size	_ZNK3MPI3Win8CompleteEv, .-_ZNK3MPI3Win8CompleteEv
	.section	.text._ZNK3MPI3Win10AccumulateEPKviRKNS_8DatatypeEiliS5_RKNS_2OpE,"axG",@progbits,_ZNK3MPI3Win10AccumulateEPKviRKNS_8DatatypeEiliS5_RKNS_2OpE,comdat
	.align 2
	.p2align 4
	.weak	_ZNK3MPI3Win10AccumulateEPKviRKNS_8DatatypeEiliS5_RKNS_2OpE
	.type	_ZNK3MPI3Win10AccumulateEPKviRKNS_8DatatypeEiliS5_RKNS_2OpE, @function
_ZNK3MPI3Win10AccumulateEPKviRKNS_8DatatypeEiliS5_RKNS_2OpE:
.LFB4042:
	.cfi_startproc
	endbr64
	pushq	%r12
	.cfi_def_cfa_offset 16
	.cfi_offset 12, -16
	movq	%rdi, %r11
	movq	32(%rsp), %r10
	movq	%rcx, %r12
	movq	8(%r11), %r11
	movq	24(%rsp), %rax
	movq	%rsi, %rdi
	movl	%edx, %esi
	movq	8(%r12), %rdx
	movl	%r8d, %ecx
	movq	%r9, %r8
	movl	16(%rsp), %r9d
	movq	%r11, 32(%rsp)
	movq	8(%r10), %r10
	movq	%r10, 24(%rsp)
	movq	8(%rax), %rax
	movq	%rax, 16(%rsp)
	popq	%r12
	.cfi_def_cfa_offset 8
	jmp	MPI_Accumulate@PLT
	.cfi_endproc
.LFE4042:
	.size	_ZNK3MPI3Win10AccumulateEPKviRKNS_8DatatypeEiliS5_RKNS_2OpE, .-_ZNK3MPI3Win10AccumulateEPKviRKNS_8DatatypeEiliS5_RKNS_2OpE
	.section	.text._ZNK3MPI3Win14Get_errhandlerEv,"axG",@progbits,_ZNK3MPI3Win14Get_errhandlerEv,comdat
	.align 2
	.p2align 4
	.weak	_ZNK3MPI3Win14Get_errhandlerEv
	.type	_ZNK3MPI3Win14Get_errhandlerEv, @function
_ZNK3MPI3Win14Get_errhandlerEv:
.LFB4040:
	.cfi_startproc
	endbr64
	pushq	%r12
	.cfi_def_cfa_offset 16
	.cfi_offset 12, -16
	movq	%rsi, %r8
	movq	%rdi, %r12
	subq	$16, %rsp
	.cfi_def_cfa_offset 32
	movq	8(%r8), %rdi
	movq	%fs:40, %rax
	movq	%rax, 8(%rsp)
	xorl	%eax, %eax
	movq	%rsp, %rsi
	call	MPI_Win_get_errhandler@PLT
	leaq	16+_ZTVN3MPI10ErrhandlerE(%rip), %rax
	movq	%rax, (%r12)
	movq	(%rsp), %rax
	movq	%rax, 8(%r12)
	movq	8(%rsp), %rax
	subq	%fs:40, %rax
	jne	.L74
	addq	$16, %rsp
	.cfi_remember_state
	.cfi_def_cfa_offset 16
	movq	%r12, %rax
	popq	%r12
	.cfi_def_cfa_offset 8
	ret
.L74:
	.cfi_restore_state
	call	__stack_chk_fail@PLT
	.cfi_endproc
.LFE4040:
	.size	_ZNK3MPI3Win14Get_errhandlerEv, .-_ZNK3MPI3Win14Get_errhandlerEv
	.section	.text._ZNK3MPI3Win14Set_errhandlerERKNS_10ErrhandlerE,"axG",@progbits,_ZNK3MPI3Win14Set_errhandlerERKNS_10ErrhandlerE,comdat
	.align 2
	.p2align 4
	.weak	_ZNK3MPI3Win14Set_errhandlerERKNS_10ErrhandlerE
	.type	_ZNK3MPI3Win14Set_errhandlerERKNS_10ErrhandlerE, @function
_ZNK3MPI3Win14Set_errhandlerERKNS_10ErrhandlerE:
.LFB4041:
	.cfi_startproc
	endbr64
	movq	8(%rsi), %rsi
	movq	8(%rdi), %rdi
	jmp	MPI_Win_set_errhandler@PLT
	.cfi_endproc
.LFE4041:
	.size	_ZNK3MPI3Win14Set_errhandlerERKNS_10ErrhandlerE, .-_ZNK3MPI3Win14Set_errhandlerERKNS_10ErrhandlerE
	.section	.text._ZN3MPI4Info3SetEPKcS2_,"axG",@progbits,_ZN3MPI4Info3SetEPKcS2_,comdat
	.align 2
	.p2align 4
	.weak	_ZN3MPI4Info3SetEPKcS2_
	.type	_ZN3MPI4Info3SetEPKcS2_, @function
_ZN3MPI4Info3SetEPKcS2_:
.LFB4039:
	.cfi_startproc
	endbr64
	movq	8(%rdi), %rdi
	jmp	MPI_Info_set@PLT
	.cfi_endproc
.LFE4039:
	.size	_ZN3MPI4Info3SetEPKcS2_, .-_ZN3MPI4Info3SetEPKcS2_
	.section	.text._ZNK3MPI4Info12Get_valuelenEPKcRi,"axG",@progbits,_ZNK3MPI4Info12Get_valuelenEPKcRi,comdat
	.align 2
	.p2align 4
	.weak	_ZNK3MPI4Info12Get_valuelenEPKcRi
	.type	_ZNK3MPI4Info12Get_valuelenEPKcRi, @function
_ZNK3MPI4Info12Get_valuelenEPKcRi:
.LFB4038:
	.cfi_startproc
	endbr64
	subq	$24, %rsp
	.cfi_def_cfa_offset 32
	movq	8(%rdi), %rdi
	movq	%fs:40, %rax
	movq	%rax, 8(%rsp)
	xorl	%eax, %eax
	leaq	4(%rsp), %rcx
	call	MPI_Info_get_valuelen@PLT
	movl	4(%rsp), %eax
	testl	%eax, %eax
	setne	%al
	movq	8(%rsp), %rdx
	subq	%fs:40, %rdx
	jne	.L80
	addq	$24, %rsp
	.cfi_remember_state
	.cfi_def_cfa_offset 8
	ret
.L80:
	.cfi_restore_state
	call	__stack_chk_fail@PLT
	.cfi_endproc
.LFE4038:
	.size	_ZNK3MPI4Info12Get_valuelenEPKcRi, .-_ZNK3MPI4Info12Get_valuelenEPKcRi
	.section	.text._ZNK3MPI4Info10Get_nthkeyEiPc,"axG",@progbits,_ZNK3MPI4Info10Get_nthkeyEiPc,comdat
	.align 2
	.p2align 4
	.weak	_ZNK3MPI4Info10Get_nthkeyEiPc
	.type	_ZNK3MPI4Info10Get_nthkeyEiPc, @function
_ZNK3MPI4Info10Get_nthkeyEiPc:
.LFB4037:
	.cfi_startproc
	endbr64
	movq	8(%rdi), %rdi
	jmp	MPI_Info_get_nthkey@PLT
	.cfi_endproc
.LFE4037:
	.size	_ZNK3MPI4Info10Get_nthkeyEiPc, .-_ZNK3MPI4Info10Get_nthkeyEiPc
	.section	.text._ZNK3MPI4Info9Get_nkeysEv,"axG",@progbits,_ZNK3MPI4Info9Get_nkeysEv,comdat
	.align 2
	.p2align 4
	.weak	_ZNK3MPI4Info9Get_nkeysEv
	.type	_ZNK3MPI4Info9Get_nkeysEv, @function
_ZNK3MPI4Info9Get_nkeysEv:
.LFB4036:
	.cfi_startproc
	endbr64
	subq	$24, %rsp
	.cfi_def_cfa_offset 32
	movq	8(%rdi), %rdi
	movq	%fs:40, %rax
	movq	%rax, 8(%rsp)
	xorl	%eax, %eax
	leaq	4(%rsp), %rsi
	call	MPI_Info_get_nkeys@PLT
	movl	4(%rsp), %eax
	movq	8(%rsp), %rdx
	subq	%fs:40, %rdx
	jne	.L85
	addq	$24, %rsp
	.cfi_remember_state
	.cfi_def_cfa_offset 8
	ret
.L85:
	.cfi_restore_state
	call	__stack_chk_fail@PLT
	.cfi_endproc
.LFE4036:
	.size	_ZNK3MPI4Info9Get_nkeysEv, .-_ZNK3MPI4Info9Get_nkeysEv
	.section	.text._ZNK3MPI4Info3GetEPKciPc,"axG",@progbits,_ZNK3MPI4Info3GetEPKciPc,comdat
	.align 2
	.p2align 4
	.weak	_ZNK3MPI4Info3GetEPKciPc
	.type	_ZNK3MPI4Info3GetEPKciPc, @function
_ZNK3MPI4Info3GetEPKciPc:
.LFB4035:
	.cfi_startproc
	endbr64
	subq	$24, %rsp
	.cfi_def_cfa_offset 32
	movq	8(%rdi), %rdi
	movq	%fs:40, %rax
	movq	%rax, 8(%rsp)
	xorl	%eax, %eax
	leaq	4(%rsp), %r8
	call	MPI_Info_get@PLT
	movl	4(%rsp), %eax
	testl	%eax, %eax
	setne	%al
	movq	8(%rsp), %rdx
	subq	%fs:40, %rdx
	jne	.L89
	addq	$24, %rsp
	.cfi_remember_state
	.cfi_def_cfa_offset 8
	ret
.L89:
	.cfi_restore_state
	call	__stack_chk_fail@PLT
	.cfi_endproc
.LFE4035:
	.size	_ZNK3MPI4Info3GetEPKciPc, .-_ZNK3MPI4Info3GetEPKciPc
	.section	.text._ZN3MPI4Info4FreeEv,"axG",@progbits,_ZN3MPI4Info4FreeEv,comdat
	.align 2
	.p2align 4
	.weak	_ZN3MPI4Info4FreeEv
	.type	_ZN3MPI4Info4FreeEv, @function
_ZN3MPI4Info4FreeEv:
.LFB4034:
	.cfi_startproc
	endbr64
	addq	$8, %rdi
	jmp	MPI_Info_free@PLT
	.cfi_endproc
.LFE4034:
	.size	_ZN3MPI4Info4FreeEv, .-_ZN3MPI4Info4FreeEv
	.section	.text._ZNK3MPI4Info3DupEv,"axG",@progbits,_ZNK3MPI4Info3DupEv,comdat
	.align 2
	.p2align 4
	.weak	_ZNK3MPI4Info3DupEv
	.type	_ZNK3MPI4Info3DupEv, @function
_ZNK3MPI4Info3DupEv:
.LFB4033:
	.cfi_startproc
	endbr64
	pushq	%r12
	.cfi_def_cfa_offset 16
	.cfi_offset 12, -16
	movq	%rsi, %r8
	movq	%rdi, %r12
	subq	$16, %rsp
	.cfi_def_cfa_offset 32
	movq	8(%r8), %rdi
	movq	%fs:40, %rax
	movq	%rax, 8(%rsp)
	xorl	%eax, %eax
	movq	%rsp, %rsi
	call	MPI_Info_dup@PLT
	leaq	16+_ZTVN3MPI4InfoE(%rip), %rax
	movq	%rax, (%r12)
	movq	(%rsp), %rax
	movq	%rax, 8(%r12)
	movq	8(%rsp), %rax
	subq	%fs:40, %rax
	jne	.L94
	addq	$16, %rsp
	.cfi_remember_state
	.cfi_def_cfa_offset 16
	movq	%r12, %rax
	popq	%r12
	.cfi_def_cfa_offset 8
	ret
.L94:
	.cfi_restore_state
	call	__stack_chk_fail@PLT
	.cfi_endproc
.LFE4033:
	.size	_ZNK3MPI4Info3DupEv, .-_ZNK3MPI4Info3DupEv
	.section	.text._ZN3MPI4Info6DeleteEPKc,"axG",@progbits,_ZN3MPI4Info6DeleteEPKc,comdat
	.align 2
	.p2align 4
	.weak	_ZN3MPI4Info6DeleteEPKc
	.type	_ZN3MPI4Info6DeleteEPKc, @function
_ZN3MPI4Info6DeleteEPKc:
.LFB4032:
	.cfi_startproc
	endbr64
	movq	8(%rdi), %rdi
	jmp	MPI_Info_delete@PLT
	.cfi_endproc
.LFE4032:
	.size	_ZN3MPI4Info6DeleteEPKc, .-_ZN3MPI4Info6DeleteEPKc
	.section	.text._ZN3MPI6Status13Set_cancelledEb,"axG",@progbits,_ZN3MPI6Status13Set_cancelledEb,comdat
	.align 2
	.p2align 4
	.weak	_ZN3MPI6Status13Set_cancelledEb
	.type	_ZN3MPI6Status13Set_cancelledEb, @function
_ZN3MPI6Status13Set_cancelledEb:
.LFB4030:
	.cfi_startproc
	endbr64
	movzbl	%sil, %esi
	addq	$8, %rdi
	jmp	MPI_Status_set_cancelled@PLT
	.cfi_endproc
.LFE4030:
	.size	_ZN3MPI6Status13Set_cancelledEb, .-_ZN3MPI6Status13Set_cancelledEb
	.section	.text._ZN3MPI6Status12Set_elementsERKNS_8DatatypeEi,"axG",@progbits,_ZN3MPI6Status12Set_elementsERKNS_8DatatypeEi,comdat
	.align 2
	.p2align 4
	.weak	_ZN3MPI6Status12Set_elementsERKNS_8DatatypeEi
	.type	_ZN3MPI6Status12Set_elementsERKNS_8DatatypeEi, @function
_ZN3MPI6Status12Set_elementsERKNS_8DatatypeEi:
.LFB4029:
	.cfi_startproc
	endbr64
	movq	8(%rsi), %rsi
	addq	$8, %rdi
	jmp	MPI_Status_set_elements@PLT
	.cfi_endproc
.LFE4029:
	.size	_ZN3MPI6Status12Set_elementsERKNS_8DatatypeEi, .-_ZN3MPI6Status12Set_elementsERKNS_8DatatypeEi
	.section	.text._ZNK3MPI6Status12Get_elementsERKNS_8DatatypeE,"axG",@progbits,_ZNK3MPI6Status12Get_elementsERKNS_8DatatypeE,comdat
	.align 2
	.p2align 4
	.weak	_ZNK3MPI6Status12Get_elementsERKNS_8DatatypeE
	.type	_ZNK3MPI6Status12Get_elementsERKNS_8DatatypeE, @function
_ZNK3MPI6Status12Get_elementsERKNS_8DatatypeE:
.LFB4022:
	.cfi_startproc
	endbr64
	subq	$24, %rsp
	.cfi_def_cfa_offset 32
	movq	8(%rsi), %rsi
	addq	$8, %rdi
	movq	%fs:40, %rax
	movq	%rax, 8(%rsp)
	xorl	%eax, %eax
	leaq	4(%rsp), %rdx
	call	MPI_Get_elements@PLT
	movl	4(%rsp), %eax
	movq	8(%rsp), %rdx
	subq	%fs:40, %rdx
	jne	.L101
	addq	$24, %rsp
	.cfi_remember_state
	.cfi_def_cfa_offset 8
	ret
.L101:
	.cfi_restore_state
	call	__stack_chk_fail@PLT
	.cfi_endproc
.LFE4022:
	.size	_ZNK3MPI6Status12Get_elementsERKNS_8DatatypeE, .-_ZNK3MPI6Status12Get_elementsERKNS_8DatatypeE
	.section	.text._ZNK3MPI6Status12Is_cancelledEv,"axG",@progbits,_ZNK3MPI6Status12Is_cancelledEv,comdat
	.align 2
	.p2align 4
	.weak	_ZNK3MPI6Status12Is_cancelledEv
	.type	_ZNK3MPI6Status12Is_cancelledEv, @function
_ZNK3MPI6Status12Is_cancelledEv:
.LFB4021:
	.cfi_startproc
	endbr64
	subq	$24, %rsp
	.cfi_def_cfa_offset 32
	addq	$8, %rdi
	movq	%fs:40, %rax
	movq	%rax, 8(%rsp)
	xorl	%eax, %eax
	leaq	4(%rsp), %rsi
	call	MPI_Test_cancelled@PLT
	movl	4(%rsp), %eax
	testl	%eax, %eax
	setne	%al
	movq	8(%rsp), %rdx
	subq	%fs:40, %rdx
	jne	.L105
	addq	$24, %rsp
	.cfi_remember_state
	.cfi_def_cfa_offset 8
	ret
.L105:
	.cfi_restore_state
	call	__stack_chk_fail@PLT
	.cfi_endproc
.LFE4021:
	.size	_ZNK3MPI6Status12Is_cancelledEv, .-_ZNK3MPI6Status12Is_cancelledEv
	.section	.text._ZNK3MPI6Status9Get_countERKNS_8DatatypeE,"axG",@progbits,_ZNK3MPI6Status9Get_countERKNS_8DatatypeE,comdat
	.align 2
	.p2align 4
	.weak	_ZNK3MPI6Status9Get_countERKNS_8DatatypeE
	.type	_ZNK3MPI6Status9Get_countERKNS_8DatatypeE, @function
_ZNK3MPI6Status9Get_countERKNS_8DatatypeE:
.LFB4020:
	.cfi_startproc
	endbr64
	subq	$24, %rsp
	.cfi_def_cfa_offset 32
	movq	8(%rsi), %rsi
	addq	$8, %rdi
	movq	%fs:40, %rax
	movq	%rax, 8(%rsp)
	xorl	%eax, %eax
	leaq	4(%rsp), %rdx
	call	MPI_Get_count@PLT
	movl	4(%rsp), %eax
	movq	8(%rsp), %rdx
	subq	%fs:40, %rdx
	jne	.L109
	addq	$24, %rsp
	.cfi_remember_state
	.cfi_def_cfa_offset 8
	ret
.L109:
	.cfi_restore_state
	call	__stack_chk_fail@PLT
	.cfi_endproc
.LFE4020:
	.size	_ZNK3MPI6Status9Get_countERKNS_8DatatypeE, .-_ZNK3MPI6Status9Get_countERKNS_8DatatypeE
	.section	.text._ZN3MPI10Errhandler4FreeEv,"axG",@progbits,_ZN3MPI10Errhandler4FreeEv,comdat
	.align 2
	.p2align 4
	.weak	_ZN3MPI10Errhandler4FreeEv
	.type	_ZN3MPI10Errhandler4FreeEv, @function
_ZN3MPI10Errhandler4FreeEv:
.LFB4019:
	.cfi_startproc
	endbr64
	addq	$8, %rdi
	jmp	MPI_Errhandler_free@PLT
	.cfi_endproc
.LFE4019:
	.size	_ZN3MPI10Errhandler4FreeEv, .-_ZN3MPI10Errhandler4FreeEv
	.section	.text._ZNK3MPI2Op14Is_commutativeEv,"axG",@progbits,_ZNK3MPI2Op14Is_commutativeEv,comdat
	.align 2
	.p2align 4
	.weak	_ZNK3MPI2Op14Is_commutativeEv
	.type	_ZNK3MPI2Op14Is_commutativeEv, @function
_ZNK3MPI2Op14Is_commutativeEv:
.LFB4018:
	.cfi_startproc
	endbr64
	subq	$24, %rsp
	.cfi_def_cfa_offset 32
	movq	8(%rdi), %rdi
	movq	%fs:40, %rax
	movq	%rax, 8(%rsp)
	xorl	%eax, %eax
	leaq	4(%rsp), %rsi
	call	MPI_Op_commutative@PLT
	movl	4(%rsp), %eax
	testl	%eax, %eax
	setne	%al
	movq	8(%rsp), %rdx
	subq	%fs:40, %rdx
	jne	.L114
	addq	$24, %rsp
	.cfi_remember_state
	.cfi_def_cfa_offset 8
	ret
.L114:
	.cfi_restore_state
	call	__stack_chk_fail@PLT
	.cfi_endproc
.LFE4018:
	.size	_ZNK3MPI2Op14Is_commutativeEv, .-_ZNK3MPI2Op14Is_commutativeEv
	.section	.text._ZNK3MPI2Op12Reduce_localEPKvPviRKNS_8DatatypeE,"axG",@progbits,_ZNK3MPI2Op12Reduce_localEPKvPviRKNS_8DatatypeE,comdat
	.align 2
	.p2align 4
	.weak	_ZNK3MPI2Op12Reduce_localEPKvPviRKNS_8DatatypeE
	.type	_ZNK3MPI2Op12Reduce_localEPKvPviRKNS_8DatatypeE, @function
_ZNK3MPI2Op12Reduce_localEPKvPviRKNS_8DatatypeE:
.LFB4017:
	.cfi_startproc
	endbr64
	movq	%rdi, %r9
	movq	%rsi, %rdi
	movq	%rdx, %rsi
	movl	%ecx, %edx
	movq	8(%r8), %rcx
	movq	8(%r9), %r8
	jmp	MPI_Reduce_local@PLT
	.cfi_endproc
.LFE4017:
	.size	_ZNK3MPI2Op12Reduce_localEPKvPviRKNS_8DatatypeE, .-_ZNK3MPI2Op12Reduce_localEPKvPviRKNS_8DatatypeE
	.section	.text._ZN3MPI2Op4FreeEv,"axG",@progbits,_ZN3MPI2Op4FreeEv,comdat
	.align 2
	.p2align 4
	.weak	_ZN3MPI2Op4FreeEv
	.type	_ZN3MPI2Op4FreeEv, @function
_ZN3MPI2Op4FreeEv:
.LFB4016:
	.cfi_startproc
	endbr64
	addq	$8, %rdi
	jmp	MPI_Op_free@PLT
	.cfi_endproc
.LFE4016:
	.size	_ZN3MPI2Op4FreeEv, .-_ZN3MPI2Op4FreeEv
	.section	.text._ZN3MPI2Op4InitEPFvPKvPviRKNS_8DatatypeEEb,"axG",@progbits,_ZN3MPI2Op4InitEPFvPKvPviRKNS_8DatatypeEEb,comdat
	.align 2
	.p2align 4
	.weak	_ZN3MPI2Op4InitEPFvPKvPviRKNS_8DatatypeEEb
	.type	_ZN3MPI2Op4InitEPFvPKvPviRKNS_8DatatypeEEb, @function
_ZN3MPI2Op4InitEPFvPKvPviRKNS_8DatatypeEEb:
.LFB4015:
	.cfi_startproc
	endbr64
	pushq	%rbp
	.cfi_def_cfa_offset 16
	.cfi_offset 6, -16
	leaq	8(%rdi), %r8
	movq	%rsi, %rbp
	movzbl	%dl, %esi
	pushq	%rbx
	.cfi_def_cfa_offset 24
	.cfi_offset 3, -24
	movq	%rdi, %rbx
	movq	%r8, %rdx
	subq	$8, %rsp
	.cfi_def_cfa_offset 32
	movq	ompi_mpi_cxx_op_intercept@GOTPCREL(%rip), %rdi
	call	MPI_Op_create@PLT
	movq	8(%rbx), %rdi
	addq	$8, %rsp
	.cfi_def_cfa_offset 24
	movq	%rbp, %rsi
	popq	%rbx
	.cfi_def_cfa_offset 16
	popq	%rbp
	.cfi_def_cfa_offset 8
	jmp	ompi_op_set_cxx_callback@PLT
	.cfi_endproc
.LFE4015:
	.size	_ZN3MPI2Op4InitEPFvPKvPviRKNS_8DatatypeEEb, .-_ZN3MPI2Op4InitEPFvPKvPviRKNS_8DatatypeEEb
	.section	.text._ZN3MPI5Group4FreeEv,"axG",@progbits,_ZN3MPI5Group4FreeEv,comdat
	.align 2
	.p2align 4
	.weak	_ZN3MPI5Group4FreeEv
	.type	_ZN3MPI5Group4FreeEv, @function
_ZN3MPI5Group4FreeEv:
.LFB3996:
	.cfi_startproc
	endbr64
	addq	$8, %rdi
	jmp	MPI_Group_free@PLT
	.cfi_endproc
.LFE3996:
	.size	_ZN3MPI5Group4FreeEv, .-_ZN3MPI5Group4FreeEv
	.section	.text._ZNK3MPI5Group10Range_exclEiPA3_Ki,"axG",@progbits,_ZNK3MPI5Group10Range_exclEiPA3_Ki,comdat
	.align 2
	.p2align 4
	.weak	_ZNK3MPI5Group10Range_exclEiPA3_Ki
	.type	_ZNK3MPI5Group10Range_exclEiPA3_Ki, @function
_ZNK3MPI5Group10Range_exclEiPA3_Ki:
.LFB3995:
	.cfi_startproc
	endbr64
	pushq	%r12
	.cfi_def_cfa_offset 16
	.cfi_offset 12, -16
	movq	%rsi, %r8
	movq	%rdi, %r12
	movl	%edx, %esi
	movq	%rcx, %rdx
	subq	$16, %rsp
	.cfi_def_cfa_offset 32
	movq	8(%r8), %rdi
	movq	%fs:40, %rax
	movq	%rax, 8(%rsp)
	xorl	%eax, %eax
	movq	%rsp, %rcx
	call	MPI_Group_range_excl@PLT
	leaq	16+_ZTVN3MPI5GroupE(%rip), %rax
	movq	%rax, (%r12)
	movq	(%rsp), %rax
	movq	%rax, 8(%r12)
	movq	8(%rsp), %rax
	subq	%fs:40, %rax
	jne	.L123
	addq	$16, %rsp
	.cfi_remember_state
	.cfi_def_cfa_offset 16
	movq	%r12, %rax
	popq	%r12
	.cfi_def_cfa_offset 8
	ret
.L123:
	.cfi_restore_state
	call	__stack_chk_fail@PLT
	.cfi_endproc
.LFE3995:
	.size	_ZNK3MPI5Group10Range_exclEiPA3_Ki, .-_ZNK3MPI5Group10Range_exclEiPA3_Ki
	.section	.text._ZNK3MPI5Group10Range_inclEiPA3_Ki,"axG",@progbits,_ZNK3MPI5Group10Range_inclEiPA3_Ki,comdat
	.align 2
	.p2align 4
	.weak	_ZNK3MPI5Group10Range_inclEiPA3_Ki
	.type	_ZNK3MPI5Group10Range_inclEiPA3_Ki, @function
_ZNK3MPI5Group10Range_inclEiPA3_Ki:
.LFB3994:
	.cfi_startproc
	endbr64
	pushq	%r12
	.cfi_def_cfa_offset 16
	.cfi_offset 12, -16
	movq	%rsi, %r8
	movq	%rdi, %r12
	movl	%edx, %esi
	movq	%rcx, %rdx
	subq	$16, %rsp
	.cfi_def_cfa_offset 32
	movq	8(%r8), %rdi
	movq	%fs:40, %rax
	movq	%rax, 8(%rsp)
	xorl	%eax, %eax
	movq	%rsp, %rcx
	call	MPI_Group_range_incl@PLT
	leaq	16+_ZTVN3MPI5GroupE(%rip), %rax
	movq	%rax, (%r12)
	movq	(%rsp), %rax
	movq	%rax, 8(%r12)
	movq	8(%rsp), %rax
	subq	%fs:40, %rax
	jne	.L127
	addq	$16, %rsp
	.cfi_remember_state
	.cfi_def_cfa_offset 16
	movq	%r12, %rax
	popq	%r12
	.cfi_def_cfa_offset 8
	ret
.L127:
	.cfi_restore_state
	call	__stack_chk_fail@PLT
	.cfi_endproc
.LFE3994:
	.size	_ZNK3MPI5Group10Range_inclEiPA3_Ki, .-_ZNK3MPI5Group10Range_inclEiPA3_Ki
	.section	.text._ZNK3MPI5Group4ExclEiPKi,"axG",@progbits,_ZNK3MPI5Group4ExclEiPKi,comdat
	.align 2
	.p2align 4
	.weak	_ZNK3MPI5Group4ExclEiPKi
	.type	_ZNK3MPI5Group4ExclEiPKi, @function
_ZNK3MPI5Group4ExclEiPKi:
.LFB3993:
	.cfi_startproc
	endbr64
	pushq	%r12
	.cfi_def_cfa_offset 16
	.cfi_offset 12, -16
	movq	%rsi, %r8
	movq	%rdi, %r12
	movl	%edx, %esi
	movq	%rcx, %rdx
	subq	$16, %rsp
	.cfi_def_cfa_offset 32
	movq	8(%r8), %rdi
	movq	%fs:40, %rax
	movq	%rax, 8(%rsp)
	xorl	%eax, %eax
	movq	%rsp, %rcx
	call	MPI_Group_excl@PLT
	leaq	16+_ZTVN3MPI5GroupE(%rip), %rax
	movq	%rax, (%r12)
	movq	(%rsp), %rax
	movq	%rax, 8(%r12)
	movq	8(%rsp), %rax
	subq	%fs:40, %rax
	jne	.L131
	addq	$16, %rsp
	.cfi_remember_state
	.cfi_def_cfa_offset 16
	movq	%r12, %rax
	popq	%r12
	.cfi_def_cfa_offset 8
	ret
.L131:
	.cfi_restore_state
	call	__stack_chk_fail@PLT
	.cfi_endproc
.LFE3993:
	.size	_ZNK3MPI5Group4ExclEiPKi, .-_ZNK3MPI5Group4ExclEiPKi
	.section	.text._ZNK3MPI5Group4InclEiPKi,"axG",@progbits,_ZNK3MPI5Group4InclEiPKi,comdat
	.align 2
	.p2align 4
	.weak	_ZNK3MPI5Group4InclEiPKi
	.type	_ZNK3MPI5Group4InclEiPKi, @function
_ZNK3MPI5Group4InclEiPKi:
.LFB3992:
	.cfi_startproc
	endbr64
	pushq	%r12
	.cfi_def_cfa_offset 16
	.cfi_offset 12, -16
	movq	%rsi, %r8
	movq	%rdi, %r12
	movl	%edx, %esi
	movq	%rcx, %rdx
	subq	$16, %rsp
	.cfi_def_cfa_offset 32
	movq	8(%r8), %rdi
	movq	%fs:40, %rax
	movq	%rax, 8(%rsp)
	xorl	%eax, %eax
	movq	%rsp, %rcx
	call	MPI_Group_incl@PLT
	leaq	16+_ZTVN3MPI5GroupE(%rip), %rax
	movq	%rax, (%r12)
	movq	(%rsp), %rax
	movq	%rax, 8(%r12)
	movq	8(%rsp), %rax
	subq	%fs:40, %rax
	jne	.L135
	addq	$16, %rsp
	.cfi_remember_state
	.cfi_def_cfa_offset 16
	movq	%r12, %rax
	popq	%r12
	.cfi_def_cfa_offset 8
	ret
.L135:
	.cfi_restore_state
	call	__stack_chk_fail@PLT
	.cfi_endproc
.LFE3992:
	.size	_ZNK3MPI5Group4InclEiPKi, .-_ZNK3MPI5Group4InclEiPKi
	.section	.text._ZNK3MPI5Group8Get_rankEv,"axG",@progbits,_ZNK3MPI5Group8Get_rankEv,comdat
	.align 2
	.p2align 4
	.weak	_ZNK3MPI5Group8Get_rankEv
	.type	_ZNK3MPI5Group8Get_rankEv, @function
_ZNK3MPI5Group8Get_rankEv:
.LFB3986:
	.cfi_startproc
	endbr64
	subq	$24, %rsp
	.cfi_def_cfa_offset 32
	movq	8(%rdi), %rdi
	movq	%fs:40, %rax
	movq	%rax, 8(%rsp)
	xorl	%eax, %eax
	leaq	4(%rsp), %rsi
	call	MPI_Group_rank@PLT
	movl	4(%rsp), %eax
	movq	8(%rsp), %rdx
	subq	%fs:40, %rdx
	jne	.L139
	addq	$24, %rsp
	.cfi_remember_state
	.cfi_def_cfa_offset 8
	ret
.L139:
	.cfi_restore_state
	call	__stack_chk_fail@PLT
	.cfi_endproc
.LFE3986:
	.size	_ZNK3MPI5Group8Get_rankEv, .-_ZNK3MPI5Group8Get_rankEv
	.section	.text._ZNK3MPI5Group8Get_sizeEv,"axG",@progbits,_ZNK3MPI5Group8Get_sizeEv,comdat
	.align 2
	.p2align 4
	.weak	_ZNK3MPI5Group8Get_sizeEv
	.type	_ZNK3MPI5Group8Get_sizeEv, @function
_ZNK3MPI5Group8Get_sizeEv:
.LFB3985:
	.cfi_startproc
	endbr64
	subq	$24, %rsp
	.cfi_def_cfa_offset 32
	movq	8(%rdi), %rdi
	movq	%fs:40, %rax
	movq	%rax, 8(%rsp)
	xorl	%eax, %eax
	leaq	4(%rsp), %rsi
	call	MPI_Group_size@PLT
	movl	4(%rsp), %eax
	movq	8(%rsp), %rdx
	subq	%fs:40, %rdx
	jne	.L143
	addq	$24, %rsp
	.cfi_remember_state
	.cfi_def_cfa_offset 8
	ret
.L143:
	.cfi_restore_state
	call	__stack_chk_fail@PLT
	.cfi_endproc
.LFE3985:
	.size	_ZNK3MPI5Group8Get_sizeEv, .-_ZNK3MPI5Group8Get_sizeEv
	.section	.text._ZNK3MPI9Intercomm5SplitEii,"axG",@progbits,_ZNK3MPI9Intercomm5SplitEii,comdat
	.align 2
	.p2align 4
	.weak	_ZNK3MPI9Intercomm5SplitEii
	.type	_ZNK3MPI9Intercomm5SplitEii, @function
_ZNK3MPI9Intercomm5SplitEii:
.LFB3984:
	.cfi_startproc
	endbr64
	pushq	%r12
	.cfi_def_cfa_offset 16
	.cfi_offset 12, -16
	movq	%rsi, %r8
	movq	%rdi, %r12
	movl	%edx, %esi
	movl	%ecx, %edx
	subq	$16, %rsp
	.cfi_def_cfa_offset 32
	movq	8(%r8), %rdi
	movq	%fs:40, %rax
	movq	%rax, 8(%rsp)
	xorl	%eax, %eax
	movq	%rsp, %rcx
	call	MPI_Comm_split@PLT
	movq	(%rsp), %rax
	movq	%rax, 8(%r12)
	leaq	16+_ZTVN3MPI9IntercommE(%rip), %rax
	movq	%rax, (%r12)
	movq	8(%rsp), %rax
	subq	%fs:40, %rax
	jne	.L147
	addq	$16, %rsp
	.cfi_remember_state
	.cfi_def_cfa_offset 16
	movq	%r12, %rax
	popq	%r12
	.cfi_def_cfa_offset 8
	ret
.L147:
	.cfi_restore_state
	call	__stack_chk_fail@PLT
	.cfi_endproc
.LFE3984:
	.size	_ZNK3MPI9Intercomm5SplitEii, .-_ZNK3MPI9Intercomm5SplitEii
	.section	.text._ZNK3MPI9Intercomm6CreateERKNS_5GroupE,"axG",@progbits,_ZNK3MPI9Intercomm6CreateERKNS_5GroupE,comdat
	.align 2
	.p2align 4
	.weak	_ZNK3MPI9Intercomm6CreateERKNS_5GroupE
	.type	_ZNK3MPI9Intercomm6CreateERKNS_5GroupE, @function
_ZNK3MPI9Intercomm6CreateERKNS_5GroupE:
.LFB3983:
	.cfi_startproc
	endbr64
	pushq	%r12
	.cfi_def_cfa_offset 16
	.cfi_offset 12, -16
	movq	%rsi, %r8
	movq	%rdx, %r9
	movq	%rdi, %r12
	subq	$16, %rsp
	.cfi_def_cfa_offset 32
	movq	8(%r9), %rsi
	movq	8(%r8), %rdi
	movq	%fs:40, %rax
	movq	%rax, 8(%rsp)
	xorl	%eax, %eax
	movq	%rsp, %rdx
	call	MPI_Comm_create@PLT
	movq	(%rsp), %rax
	movq	%rax, 8(%r12)
	leaq	16+_ZTVN3MPI9IntercommE(%rip), %rax
	movq	%rax, (%r12)
	movq	8(%rsp), %rax
	subq	%fs:40, %rax
	jne	.L151
	addq	$16, %rsp
	.cfi_remember_state
	.cfi_def_cfa_offset 16
	movq	%r12, %rax
	popq	%r12
	.cfi_def_cfa_offset 8
	ret
.L151:
	.cfi_restore_state
	call	__stack_chk_fail@PLT
	.cfi_endproc
.LFE3983:
	.size	_ZNK3MPI9Intercomm6CreateERKNS_5GroupE, .-_ZNK3MPI9Intercomm6CreateERKNS_5GroupE
	.section	.text._ZNK3MPI4Comm8Is_interEv,"axG",@progbits,_ZNK3MPI4Comm8Is_interEv,comdat
	.align 2
	.p2align 4
	.weak	_ZNK3MPI4Comm8Is_interEv
	.type	_ZNK3MPI4Comm8Is_interEv, @function
_ZNK3MPI4Comm8Is_interEv:
.LFB3901:
	.cfi_startproc
	endbr64
	subq	$24, %rsp
	.cfi_def_cfa_offset 32
	movq	8(%rdi), %rdi
	movq	%fs:40, %rax
	movq	%rax, 8(%rsp)
	xorl	%eax, %eax
	leaq	4(%rsp), %rsi
	call	MPI_Comm_test_inter@PLT
	movl	4(%rsp), %eax
	testl	%eax, %eax
	setne	%al
	movq	8(%rsp), %rdx
	subq	%fs:40, %rdx
	jne	.L155
	addq	$24, %rsp
	.cfi_remember_state
	.cfi_def_cfa_offset 8
	ret
.L155:
	.cfi_restore_state
	call	__stack_chk_fail@PLT
	.cfi_endproc
.LFE3901:
	.size	_ZNK3MPI4Comm8Is_interEv, .-_ZNK3MPI4Comm8Is_interEv
	.section	.text._ZNK3MPI9Intercomm16Get_remote_groupEv,"axG",@progbits,_ZNK3MPI9Intercomm16Get_remote_groupEv,comdat
	.align 2
	.p2align 4
	.weak	_ZNK3MPI9Intercomm16Get_remote_groupEv
	.type	_ZNK3MPI9Intercomm16Get_remote_groupEv, @function
_ZNK3MPI9Intercomm16Get_remote_groupEv:
.LFB3981:
	.cfi_startproc
	endbr64
	pushq	%r12
	.cfi_def_cfa_offset 16
	.cfi_offset 12, -16
	movq	%rsi, %r8
	movq	%rdi, %r12
	subq	$16, %rsp
	.cfi_def_cfa_offset 32
	movq	8(%r8), %rdi
	movq	%fs:40, %rax
	movq	%rax, 8(%rsp)
	xorl	%eax, %eax
	movq	%rsp, %rsi
	call	MPI_Comm_remote_group@PLT
	leaq	16+_ZTVN3MPI5GroupE(%rip), %rax
	movq	%rax, (%r12)
	movq	(%rsp), %rax
	movq	%rax, 8(%r12)
	movq	8(%rsp), %rax
	subq	%fs:40, %rax
	jne	.L159
	addq	$16, %rsp
	.cfi_remember_state
	.cfi_def_cfa_offset 16
	movq	%r12, %rax
	popq	%r12
	.cfi_def_cfa_offset 8
	ret
.L159:
	.cfi_restore_state
	call	__stack_chk_fail@PLT
	.cfi_endproc
.LFE3981:
	.size	_ZNK3MPI9Intercomm16Get_remote_groupEv, .-_ZNK3MPI9Intercomm16Get_remote_groupEv
	.section	.text._ZNK3MPI9Intercomm15Get_remote_sizeEv,"axG",@progbits,_ZNK3MPI9Intercomm15Get_remote_sizeEv,comdat
	.align 2
	.p2align 4
	.weak	_ZNK3MPI9Intercomm15Get_remote_sizeEv
	.type	_ZNK3MPI9Intercomm15Get_remote_sizeEv, @function
_ZNK3MPI9Intercomm15Get_remote_sizeEv:
.LFB3980:
	.cfi_startproc
	endbr64
	subq	$24, %rsp
	.cfi_def_cfa_offset 32
	movq	8(%rdi), %rdi
	movq	%fs:40, %rax
	movq	%rax, 8(%rsp)
	xorl	%eax, %eax
	leaq	4(%rsp), %rsi
	call	MPI_Comm_remote_size@PLT
	movl	4(%rsp), %eax
	movq	8(%rsp), %rdx
	subq	%fs:40, %rdx
	jne	.L163
	addq	$24, %rsp
	.cfi_remember_state
	.cfi_def_cfa_offset 8
	ret
.L163:
	.cfi_restore_state
	call	__stack_chk_fail@PLT
	.cfi_endproc
.LFE3980:
	.size	_ZNK3MPI9Intercomm15Get_remote_sizeEv, .-_ZNK3MPI9Intercomm15Get_remote_sizeEv
	.section	.text._ZN3MPI4Comm11Delete_attrEi,"axG",@progbits,_ZN3MPI4Comm11Delete_attrEi,comdat
	.align 2
	.p2align 4
	.weak	_ZN3MPI4Comm11Delete_attrEi
	.type	_ZN3MPI4Comm11Delete_attrEi, @function
_ZN3MPI4Comm11Delete_attrEi:
.LFB3933:
	.cfi_startproc
	endbr64
	movq	8(%rdi), %rdi
	jmp	MPI_Comm_delete_attr@PLT
	.cfi_endproc
.LFE3933:
	.size	_ZN3MPI4Comm11Delete_attrEi, .-_ZN3MPI4Comm11Delete_attrEi
	.section	.text._ZNK3MPI4Comm8Get_attrEiPv,"axG",@progbits,_ZNK3MPI4Comm8Get_attrEiPv,comdat
	.align 2
	.p2align 4
	.weak	_ZNK3MPI4Comm8Get_attrEiPv
	.type	_ZNK3MPI4Comm8Get_attrEiPv, @function
_ZNK3MPI4Comm8Get_attrEiPv:
.LFB3932:
	.cfi_startproc
	endbr64
	subq	$24, %rsp
	.cfi_def_cfa_offset 32
	movq	8(%rdi), %rdi
	movq	%fs:40, %rax
	movq	%rax, 8(%rsp)
	xorl	%eax, %eax
	leaq	4(%rsp), %rcx
	call	MPI_Comm_get_attr@PLT
	movl	4(%rsp), %eax
	testl	%eax, %eax
	setne	%al
	movq	8(%rsp), %rdx
	subq	%fs:40, %rdx
	jne	.L168
	addq	$24, %rsp
	.cfi_remember_state
	.cfi_def_cfa_offset 8
	ret
.L168:
	.cfi_restore_state
	call	__stack_chk_fail@PLT
	.cfi_endproc
.LFE3932:
	.size	_ZNK3MPI4Comm8Get_attrEiPv, .-_ZNK3MPI4Comm8Get_attrEiPv
	.section	.text._ZNK3MPI4Comm8Set_attrEiPKv,"axG",@progbits,_ZNK3MPI4Comm8Set_attrEiPKv,comdat
	.align 2
	.p2align 4
	.weak	_ZNK3MPI4Comm8Set_attrEiPKv
	.type	_ZNK3MPI4Comm8Set_attrEiPKv, @function
_ZNK3MPI4Comm8Set_attrEiPKv:
.LFB3931:
	.cfi_startproc
	endbr64
	movq	8(%rdi), %rdi
	jmp	MPI_Comm_set_attr@PLT
	.cfi_endproc
.LFE3931:
	.size	_ZNK3MPI4Comm8Set_attrEiPKv, .-_ZNK3MPI4Comm8Set_attrEiPKv
	.section	.text._ZNK3MPI4Comm14Get_errhandlerEv,"axG",@progbits,_ZNK3MPI4Comm14Get_errhandlerEv,comdat
	.align 2
	.p2align 4
	.weak	_ZNK3MPI4Comm14Get_errhandlerEv
	.type	_ZNK3MPI4Comm14Get_errhandlerEv, @function
_ZNK3MPI4Comm14Get_errhandlerEv:
.LFB3923:
	.cfi_startproc
	endbr64
	pushq	%r12
	.cfi_def_cfa_offset 16
	.cfi_offset 12, -16
	movq	%rsi, %r8
	movq	%rdi, %r12
	subq	$16, %rsp
	.cfi_def_cfa_offset 32
	movq	8(%r8), %rdi
	movq	%fs:40, %rax
	movq	%rax, 8(%rsp)
	xorl	%eax, %eax
	movq	%rsp, %rsi
	call	MPI_Comm_get_errhandler@PLT
	leaq	16+_ZTVN3MPI10ErrhandlerE(%rip), %rax
	movq	%rax, (%r12)
	movq	(%rsp), %rax
	movq	%rax, 8(%r12)
	movq	8(%rsp), %rax
	subq	%fs:40, %rax
	jne	.L173
	addq	$16, %rsp
	.cfi_remember_state
	.cfi_def_cfa_offset 16
	movq	%r12, %rax
	popq	%r12
	.cfi_def_cfa_offset 8
	ret
.L173:
	.cfi_restore_state
	call	__stack_chk_fail@PLT
	.cfi_endproc
.LFE3923:
	.size	_ZNK3MPI4Comm14Get_errhandlerEv, .-_ZNK3MPI4Comm14Get_errhandlerEv
	.section	.text._ZN3MPI4Comm14Set_errhandlerERKNS_10ErrhandlerE,"axG",@progbits,_ZN3MPI4Comm14Set_errhandlerERKNS_10ErrhandlerE,comdat
	.align 2
	.p2align 4
	.weak	_ZN3MPI4Comm14Set_errhandlerERKNS_10ErrhandlerE
	.type	_ZN3MPI4Comm14Set_errhandlerERKNS_10ErrhandlerE, @function
_ZN3MPI4Comm14Set_errhandlerERKNS_10ErrhandlerE:
.LFB3924:
	.cfi_startproc
	endbr64
	movq	8(%rsi), %rsi
	movq	8(%rdi), %rdi
	jmp	MPI_Comm_set_errhandler@PLT
	.cfi_endproc
.LFE3924:
	.size	_ZN3MPI4Comm14Set_errhandlerERKNS_10ErrhandlerE, .-_ZN3MPI4Comm14Set_errhandlerERKNS_10ErrhandlerE
	.section	.text._ZN3MPI4Comm5AbortEi,"axG",@progbits,_ZN3MPI4Comm5AbortEi,comdat
	.align 2
	.p2align 4
	.weak	_ZN3MPI4Comm5AbortEi
	.type	_ZN3MPI4Comm5AbortEi, @function
_ZN3MPI4Comm5AbortEi:
.LFB3922:
	.cfi_startproc
	endbr64
	movq	8(%rdi), %rdi
	jmp	MPI_Abort@PLT
	.cfi_endproc
.LFE3922:
	.size	_ZN3MPI4Comm5AbortEi, .-_ZN3MPI4Comm5AbortEi
	.section	.text._ZNK3MPI4Comm12Get_topologyEv,"axG",@progbits,_ZNK3MPI4Comm12Get_topologyEv,comdat
	.align 2
	.p2align 4
	.weak	_ZNK3MPI4Comm12Get_topologyEv
	.type	_ZNK3MPI4Comm12Get_topologyEv, @function
_ZNK3MPI4Comm12Get_topologyEv:
.LFB3921:
	.cfi_startproc
	endbr64
	subq	$24, %rsp
	.cfi_def_cfa_offset 32
	movq	8(%rdi), %rdi
	movq	%fs:40, %rax
	movq	%rax, 8(%rsp)
	xorl	%eax, %eax
	leaq	4(%rsp), %rsi
	call	MPI_Topo_test@PLT
	movl	4(%rsp), %eax
	movq	8(%rsp), %rdx
	subq	%fs:40, %rdx
	jne	.L179
	addq	$24, %rsp
	.cfi_remember_state
	.cfi_def_cfa_offset 8
	ret
.L179:
	.cfi_restore_state
	call	__stack_chk_fail@PLT
	.cfi_endproc
.LFE3921:
	.size	_ZNK3MPI4Comm12Get_topologyEv, .-_ZNK3MPI4Comm12Get_topologyEv
	.section	.text._ZN3MPI4Comm8Set_nameEPKc,"axG",@progbits,_ZN3MPI4Comm8Set_nameEPKc,comdat
	.align 2
	.p2align 4
	.weak	_ZN3MPI4Comm8Set_nameEPKc
	.type	_ZN3MPI4Comm8Set_nameEPKc, @function
_ZN3MPI4Comm8Set_nameEPKc:
.LFB3920:
	.cfi_startproc
	endbr64
	movq	8(%rdi), %rdi
	jmp	MPI_Comm_set_name@PLT
	.cfi_endproc
.LFE3920:
	.size	_ZN3MPI4Comm8Set_nameEPKc, .-_ZN3MPI4Comm8Set_nameEPKc
	.section	.text._ZNK3MPI4Comm8Get_nameEPcRi,"axG",@progbits,_ZNK3MPI4Comm8Get_nameEPcRi,comdat
	.align 2
	.p2align 4
	.weak	_ZNK3MPI4Comm8Get_nameEPcRi
	.type	_ZNK3MPI4Comm8Get_nameEPcRi, @function
_ZNK3MPI4Comm8Get_nameEPcRi:
.LFB3919:
	.cfi_startproc
	endbr64
	movq	8(%rdi), %rdi
	jmp	MPI_Comm_get_name@PLT
	.cfi_endproc
.LFE3919:
	.size	_ZNK3MPI4Comm8Get_nameEPcRi, .-_ZNK3MPI4Comm8Get_nameEPcRi
	.section	.text._ZN3MPI4Comm10DisconnectEv,"axG",@progbits,_ZN3MPI4Comm10DisconnectEv,comdat
	.align 2
	.p2align 4
	.weak	_ZN3MPI4Comm10DisconnectEv
	.type	_ZN3MPI4Comm10DisconnectEv, @function
_ZN3MPI4Comm10DisconnectEv:
.LFB3916:
	.cfi_startproc
	endbr64
	addq	$8, %rdi
	jmp	MPI_Comm_disconnect@PLT
	.cfi_endproc
.LFE3916:
	.size	_ZN3MPI4Comm10DisconnectEv, .-_ZN3MPI4Comm10DisconnectEv
	.section	.text._ZNK3MPI4Comm14Reduce_scatterEPKvPvPiRKNS_8DatatypeERKNS_2OpE,"axG",@progbits,_ZNK3MPI4Comm14Reduce_scatterEPKvPvPiRKNS_8DatatypeERKNS_2OpE,comdat
	.align 2
	.p2align 4
	.weak	_ZNK3MPI4Comm14Reduce_scatterEPKvPvPiRKNS_8DatatypeERKNS_2OpE
	.type	_ZNK3MPI4Comm14Reduce_scatterEPKvPvPiRKNS_8DatatypeERKNS_2OpE, @function
_ZNK3MPI4Comm14Reduce_scatterEPKvPvPiRKNS_8DatatypeERKNS_2OpE:
.LFB3915:
	.cfi_startproc
	endbr64
	movq	%rdi, %r10
	movq	%r9, %rax
	movq	%rsi, %rdi
	movq	%rdx, %rsi
	movq	8(%r10), %r9
	movq	%rcx, %rdx
	movq	8(%r8), %rcx
	movq	8(%rax), %r8
	jmp	MPI_Reduce_scatter@PLT
	.cfi_endproc
.LFE3915:
	.size	_ZNK3MPI4Comm14Reduce_scatterEPKvPvPiRKNS_8DatatypeERKNS_2OpE, .-_ZNK3MPI4Comm14Reduce_scatterEPKvPvPiRKNS_8DatatypeERKNS_2OpE
	.section	.text._ZNK3MPI4Comm9AllreduceEPKvPviRKNS_8DatatypeERKNS_2OpE,"axG",@progbits,_ZNK3MPI4Comm9AllreduceEPKvPviRKNS_8DatatypeERKNS_2OpE,comdat
	.align 2
	.p2align 4
	.weak	_ZNK3MPI4Comm9AllreduceEPKvPviRKNS_8DatatypeERKNS_2OpE
	.type	_ZNK3MPI4Comm9AllreduceEPKvPviRKNS_8DatatypeERKNS_2OpE, @function
_ZNK3MPI4Comm9AllreduceEPKvPviRKNS_8DatatypeERKNS_2OpE:
.LFB3914:
	.cfi_startproc
	endbr64
	movq	%rdi, %r10
	movq	%r9, %rax
	movq	%rsi, %rdi
	movq	%rdx, %rsi
	movq	8(%r10), %r9
	movl	%ecx, %edx
	movq	8(%r8), %rcx
	movq	8(%rax), %r8
	jmp	MPI_Allreduce@PLT
	.cfi_endproc
.LFE3914:
	.size	_ZNK3MPI4Comm9AllreduceEPKvPviRKNS_8DatatypeERKNS_2OpE, .-_ZNK3MPI4Comm9AllreduceEPKvPviRKNS_8DatatypeERKNS_2OpE
	.section	.text._ZNK3MPI4Comm6ReduceEPKvPviRKNS_8DatatypeERKNS_2OpEi,"axG",@progbits,_ZNK3MPI4Comm6ReduceEPKvPviRKNS_8DatatypeERKNS_2OpEi,comdat
	.align 2
	.p2align 4
	.weak	_ZNK3MPI4Comm6ReduceEPKvPviRKNS_8DatatypeERKNS_2OpEi
	.type	_ZNK3MPI4Comm6ReduceEPKvPviRKNS_8DatatypeERKNS_2OpEi, @function
_ZNK3MPI4Comm6ReduceEPKvPviRKNS_8DatatypeERKNS_2OpEi:
.LFB3913:
	.cfi_startproc
	endbr64
	movq	%rdi, %r10
	movq	%r9, %rax
	movq	%rsi, %rdi
	movq	%rdx, %rsi
	movq	8(%rax), %rax
	movl	%ecx, %edx
	movq	8(%r8), %rcx
	movq	8(%r10), %r8
	movl	8(%rsp), %r9d
	movq	%r8, 8(%rsp)
	movq	%rax, %r8
	jmp	MPI_Reduce@PLT
	.cfi_endproc
.LFE3913:
	.size	_ZNK3MPI4Comm6ReduceEPKvPviRKNS_8DatatypeERKNS_2OpEi, .-_ZNK3MPI4Comm6ReduceEPKvPviRKNS_8DatatypeERKNS_2OpEi
	.section	.text._ZNK3MPI4Comm9AlltoallvEPKvPKiS4_RKNS_8DatatypeEPvS4_S4_S7_,"axG",@progbits,_ZNK3MPI4Comm9AlltoallvEPKvPKiS4_RKNS_8DatatypeEPvS4_S4_S7_,comdat
	.align 2
	.p2align 4
	.weak	_ZNK3MPI4Comm9AlltoallvEPKvPKiS4_RKNS_8DatatypeEPvS4_S4_S7_
	.type	_ZNK3MPI4Comm9AlltoallvEPKvPKiS4_RKNS_8DatatypeEPvS4_S4_S7_, @function
_ZNK3MPI4Comm9AlltoallvEPKvPKiS4_RKNS_8DatatypeEPvS4_S4_S7_:
.LFB3911:
	.cfi_startproc
	endbr64
	pushq	%rbp
	.cfi_def_cfa_offset 16
	.cfi_offset 6, -16
	movq	%rdi, %rbp
	movq	32(%rsp), %r11
	movq	%rsi, %rdi
	movq	%rdx, %rsi
	movq	%rcx, %rdx
	movq	8(%r8), %rcx
	movq	8(%rbp), %r8
	movq	24(%rsp), %r10
	movq	%r9, %rax
	movq	16(%rsp), %r9
	movq	%r8, 32(%rsp)
	movq	8(%r11), %r8
	movq	%r10, 16(%rsp)
	movq	%r8, 24(%rsp)
	movq	%rax, %r8
	popq	%rbp
	.cfi_def_cfa_offset 8
	jmp	MPI_Alltoallv@PLT
	.cfi_endproc
.LFE3911:
	.size	_ZNK3MPI4Comm9AlltoallvEPKvPKiS4_RKNS_8DatatypeEPvS4_S4_S7_, .-_ZNK3MPI4Comm9AlltoallvEPKvPKiS4_RKNS_8DatatypeEPvS4_S4_S7_
	.section	.text._ZNK3MPI4Comm8AlltoallEPKviRKNS_8DatatypeEPviS5_,"axG",@progbits,_ZNK3MPI4Comm8AlltoallEPKviRKNS_8DatatypeEPviS5_,comdat
	.align 2
	.p2align 4
	.weak	_ZNK3MPI4Comm8AlltoallEPKviRKNS_8DatatypeEPviS5_
	.type	_ZNK3MPI4Comm8AlltoallEPKviRKNS_8DatatypeEPviS5_, @function
_ZNK3MPI4Comm8AlltoallEPKviRKNS_8DatatypeEPviS5_:
.LFB3910:
	.cfi_startproc
	endbr64
	movq	%rdi, %r10
	movq	8(%rsp), %rax
	movq	%rcx, %r11
	movq	%r8, %rcx
	movl	%r9d, %r8d
	movq	8(%r10), %r9
	movq	%rsi, %rdi
	movl	%edx, %esi
	movq	8(%r11), %rdx
	movq	%r9, 8(%rsp)
	movq	8(%rax), %r9
	jmp	MPI_Alltoall@PLT
	.cfi_endproc
.LFE3910:
	.size	_ZNK3MPI4Comm8AlltoallEPKviRKNS_8DatatypeEPviS5_, .-_ZNK3MPI4Comm8AlltoallEPKviRKNS_8DatatypeEPviS5_
	.section	.text._ZNK3MPI4Comm10AllgathervEPKviRKNS_8DatatypeEPvPKiS8_S5_,"axG",@progbits,_ZNK3MPI4Comm10AllgathervEPKviRKNS_8DatatypeEPvPKiS8_S5_,comdat
	.align 2
	.p2align 4
	.weak	_ZNK3MPI4Comm10AllgathervEPKviRKNS_8DatatypeEPvPKiS8_S5_
	.type	_ZNK3MPI4Comm10AllgathervEPKviRKNS_8DatatypeEPvPKiS8_S5_, @function
_ZNK3MPI4Comm10AllgathervEPKviRKNS_8DatatypeEPvPKiS8_S5_:
.LFB3909:
	.cfi_startproc
	endbr64
	movq	%rdi, %r10
	movq	16(%rsp), %rax
	movq	%rcx, %r11
	movq	%rsi, %rdi
	movq	8(%r10), %r10
	movl	%edx, %esi
	movq	%r8, %rcx
	movq	8(%r11), %rdx
	movq	%r9, %r8
	movq	8(%rsp), %r9
	movq	%r10, 16(%rsp)
	movq	8(%rax), %rax
	movq	%rax, 8(%rsp)
	jmp	MPI_Allgatherv@PLT
	.cfi_endproc
.LFE3909:
	.size	_ZNK3MPI4Comm10AllgathervEPKviRKNS_8DatatypeEPvPKiS8_S5_, .-_ZNK3MPI4Comm10AllgathervEPKviRKNS_8DatatypeEPvPKiS8_S5_
	.section	.text._ZNK3MPI4Comm9AllgatherEPKviRKNS_8DatatypeEPviS5_,"axG",@progbits,_ZNK3MPI4Comm9AllgatherEPKviRKNS_8DatatypeEPviS5_,comdat
	.align 2
	.p2align 4
	.weak	_ZNK3MPI4Comm9AllgatherEPKviRKNS_8DatatypeEPviS5_
	.type	_ZNK3MPI4Comm9AllgatherEPKviRKNS_8DatatypeEPviS5_, @function
_ZNK3MPI4Comm9AllgatherEPKviRKNS_8DatatypeEPviS5_:
.LFB3908:
	.cfi_startproc
	endbr64
	movq	%rdi, %r10
	movq	8(%rsp), %rax
	movq	%rcx, %r11
	movq	%r8, %rcx
	movl	%r9d, %r8d
	movq	8(%r10), %r9
	movq	%rsi, %rdi
	movl	%edx, %esi
	movq	8(%r11), %rdx
	movq	%r9, 8(%rsp)
	movq	8(%rax), %r9
	jmp	MPI_Allgather@PLT
	.cfi_endproc
.LFE3908:
	.size	_ZNK3MPI4Comm9AllgatherEPKviRKNS_8DatatypeEPviS5_, .-_ZNK3MPI4Comm9AllgatherEPKviRKNS_8DatatypeEPviS5_
	.section	.text._ZNK3MPI4Comm8ScattervEPKvPKiS4_RKNS_8DatatypeEPviS7_i,"axG",@progbits,_ZNK3MPI4Comm8ScattervEPKvPKiS4_RKNS_8DatatypeEPviS7_i,comdat
	.align 2
	.p2align 4
	.weak	_ZNK3MPI4Comm8ScattervEPKvPKiS4_RKNS_8DatatypeEPviS7_i
	.type	_ZNK3MPI4Comm8ScattervEPKvPKiS4_RKNS_8DatatypeEPviS7_i, @function
_ZNK3MPI4Comm8ScattervEPKvPKiS4_RKNS_8DatatypeEPviS7_i:
.LFB3907:
	.cfi_startproc
	endbr64
	pushq	%rbp
	.cfi_def_cfa_offset 16
	.cfi_offset 6, -16
	movq	%rdi, %rbp
	movq	24(%rsp), %r10
	movq	%rsi, %rdi
	movl	32(%rsp), %r11d
	movq	%rdx, %rsi
	movq	%rcx, %rdx
	movq	8(%r8), %rcx
	movq	8(%rbp), %r8
	movq	%r9, %rax
	movl	16(%rsp), %r9d
	movl	%r11d, 24(%rsp)
	movq	%r8, 32(%rsp)
	movq	8(%r10), %r8
	movq	%r8, 16(%rsp)
	movq	%rax, %r8
	popq	%rbp
	.cfi_def_cfa_offset 8
	jmp	MPI_Scatterv@PLT
	.cfi_endproc
.LFE3907:
	.size	_ZNK3MPI4Comm8ScattervEPKvPKiS4_RKNS_8DatatypeEPviS7_i, .-_ZNK3MPI4Comm8ScattervEPKvPKiS4_RKNS_8DatatypeEPviS7_i
	.section	.text._ZNK3MPI4Comm7ScatterEPKviRKNS_8DatatypeEPviS5_i,"axG",@progbits,_ZNK3MPI4Comm7ScatterEPKviRKNS_8DatatypeEPviS5_i,comdat
	.align 2
	.p2align 4
	.weak	_ZNK3MPI4Comm7ScatterEPKviRKNS_8DatatypeEPviS5_i
	.type	_ZNK3MPI4Comm7ScatterEPKviRKNS_8DatatypeEPviS5_i, @function
_ZNK3MPI4Comm7ScatterEPKviRKNS_8DatatypeEPviS5_i:
.LFB3906:
	.cfi_startproc
	endbr64
	movq	%rdi, %r10
	movq	8(%rsp), %rax
	movq	%rcx, %r11
	movq	%r8, %rcx
	movq	8(%r10), %r10
	movl	%r9d, %r8d
	movl	16(%rsp), %r9d
	movq	%rsi, %rdi
	movl	%edx, %esi
	movq	8(%r11), %rdx
	movq	%r10, 16(%rsp)
	movl	%r9d, 8(%rsp)
	movq	8(%rax), %r9
	jmp	MPI_Scatter@PLT
	.cfi_endproc
.LFE3906:
	.size	_ZNK3MPI4Comm7ScatterEPKviRKNS_8DatatypeEPviS5_i, .-_ZNK3MPI4Comm7ScatterEPKviRKNS_8DatatypeEPviS5_i
	.section	.text._ZNK3MPI4Comm6GatherEPKviRKNS_8DatatypeEPviS5_i,"axG",@progbits,_ZNK3MPI4Comm6GatherEPKviRKNS_8DatatypeEPviS5_i,comdat
	.align 2
	.p2align 4
	.weak	_ZNK3MPI4Comm6GatherEPKviRKNS_8DatatypeEPviS5_i
	.type	_ZNK3MPI4Comm6GatherEPKviRKNS_8DatatypeEPviS5_i, @function
_ZNK3MPI4Comm6GatherEPKviRKNS_8DatatypeEPviS5_i:
.LFB3904:
	.cfi_startproc
	endbr64
	movq	%rdi, %r10
	movq	8(%rsp), %rax
	movq	%rcx, %r11
	movq	%r8, %rcx
	movq	8(%r10), %r10
	movl	%r9d, %r8d
	movl	16(%rsp), %r9d
	movq	%rsi, %rdi
	movl	%edx, %esi
	movq	8(%r11), %rdx
	movq	%r10, 16(%rsp)
	movl	%r9d, 8(%rsp)
	movq	8(%rax), %r9
	jmp	MPI_Gather@PLT
	.cfi_endproc
.LFE3904:
	.size	_ZNK3MPI4Comm6GatherEPKviRKNS_8DatatypeEPviS5_i, .-_ZNK3MPI4Comm6GatherEPKviRKNS_8DatatypeEPviS5_i
	.section	.text._ZNK3MPI4Comm5BcastEPviRKNS_8DatatypeEi,"axG",@progbits,_ZNK3MPI4Comm5BcastEPviRKNS_8DatatypeEi,comdat
	.align 2
	.p2align 4
	.weak	_ZNK3MPI4Comm5BcastEPviRKNS_8DatatypeEi
	.type	_ZNK3MPI4Comm5BcastEPviRKNS_8DatatypeEi, @function
_ZNK3MPI4Comm5BcastEPviRKNS_8DatatypeEi:
.LFB3903:
	.cfi_startproc
	endbr64
	movq	%rdi, %r9
	movq	%rcx, %r10
	movq	%rsi, %rdi
	movl	%r8d, %ecx
	movl	%edx, %esi
	movq	8(%r9), %r8
	movq	8(%r10), %rdx
	jmp	MPI_Bcast@PLT
	.cfi_endproc
.LFE3903:
	.size	_ZNK3MPI4Comm5BcastEPviRKNS_8DatatypeEi, .-_ZNK3MPI4Comm5BcastEPviRKNS_8DatatypeEi
	.section	.text._ZNK3MPI4Comm7BarrierEv,"axG",@progbits,_ZNK3MPI4Comm7BarrierEv,comdat
	.align 2
	.p2align 4
	.weak	_ZNK3MPI4Comm7BarrierEv
	.type	_ZNK3MPI4Comm7BarrierEv, @function
_ZNK3MPI4Comm7BarrierEv:
.LFB3902:
	.cfi_startproc
	endbr64
	movq	8(%rdi), %rdi
	jmp	MPI_Barrier@PLT
	.cfi_endproc
.LFE3902:
	.size	_ZNK3MPI4Comm7BarrierEv, .-_ZNK3MPI4Comm7BarrierEv
	.section	.text._ZN3MPI4Comm4FreeEv,"axG",@progbits,_ZN3MPI4Comm4FreeEv,comdat
	.align 2
	.p2align 4
	.weak	_ZN3MPI4Comm4FreeEv
	.type	_ZN3MPI4Comm4FreeEv, @function
_ZN3MPI4Comm4FreeEv:
.LFB3900:
	.cfi_startproc
	endbr64
	addq	$8, %rdi
	jmp	MPI_Comm_free@PLT
	.cfi_endproc
.LFE3900:
	.size	_ZN3MPI4Comm4FreeEv, .-_ZN3MPI4Comm4FreeEv
	.section	.text._ZNK3MPI9Intercomm5CloneEv,"axG",@progbits,_ZNK3MPI9Intercomm5CloneEv,comdat
	.align 2
	.p2align 4
	.weak	_ZNK3MPI9Intercomm5CloneEv
	.type	_ZNK3MPI9Intercomm5CloneEv, @function
_ZNK3MPI9Intercomm5CloneEv:
.LFB3979:
	.cfi_startproc
	endbr64
	subq	$24, %rsp
	.cfi_def_cfa_offset 32
	movq	8(%rdi), %rdi
	movq	%fs:40, %rax
	movq	%rax, 8(%rsp)
	xorl	%eax, %eax
	movq	%rsp, %rsi
	call	MPI_Comm_dup@PLT
	movl	$16, %edi
	call	_Znwm@PLT
	movq	(%rsp), %rdx
	leaq	16+_ZTVN3MPI9IntercommE(%rip), %rcx
	movq	%rcx, (%rax)
	movq	%rdx, 8(%rax)
	movq	8(%rsp), %rdx
	subq	%fs:40, %rdx
	jne	.L201
	addq	$24, %rsp
	.cfi_remember_state
	.cfi_def_cfa_offset 8
	ret
.L201:
	.cfi_restore_state
	call	__stack_chk_fail@PLT
	.cfi_endproc
.LFE3979:
	.size	_ZNK3MPI9Intercomm5CloneEv, .-_ZNK3MPI9Intercomm5CloneEv
	.section	.text._ZNK3MPI9Intracomm5CloneEv,"axG",@progbits,_ZNK3MPI9Intracomm5CloneEv,comdat
	.align 2
	.p2align 4
	.weak	_ZNK3MPI9Intracomm5CloneEv
	.type	_ZNK3MPI9Intracomm5CloneEv, @function
_ZNK3MPI9Intracomm5CloneEv:
.LFB3943:
	.cfi_startproc
	.cfi_personality 0x9b,DW.ref.__gxx_personality_v0
	.cfi_lsda 0x1b,.LLSDA3943
	endbr64
	pushq	%r12
	.cfi_def_cfa_offset 16
	.cfi_offset 12, -16
	pushq	%rbp
	.cfi_def_cfa_offset 24
	.cfi_offset 6, -24
	pushq	%rbx
	.cfi_def_cfa_offset 32
	.cfi_offset 3, -32
	subq	$32, %rsp
	.cfi_def_cfa_offset 64
	movq	8(%rdi), %rdi
	movq	%fs:40, %rax
	movq	%rax, 24(%rsp)
	xorl	%eax, %eax
	leaq	16(%rsp), %rsi
.LEHB0:
	call	MPI_Comm_dup@PLT
	movl	$16, %edi
	call	_Znwm@PLT
.LEHE0:
	movq	16(%rsp), %rbx
	movq	%rax, %rdi
	movq	%rax, %r12
.LEHB1:
	call	_ZN3MPI4CommC2Ev@PLT
	leaq	16+_ZTVN3MPI9IntracommE(%rip), %rax
	leaq	12(%rsp), %rdi
	movl	$0, 8(%rsp)
	movq	%rax, (%r12)
	call	MPI_Initialized@PLT
	movl	12(%rsp), %edx
	testl	%edx, %edx
	je	.L203
	leaq	ompi_mpi_comm_null(%rip), %rax
	cmpq	%rax, %rbx
	jne	.L215
.L203:
	movq	%rbx, 8(%r12)
	movq	24(%rsp), %rax
	subq	%fs:40, %rax
	jne	.L216
	addq	$32, %rsp
	.cfi_remember_state
	.cfi_def_cfa_offset 32
	movq	%r12, %rax
	popq	%rbx
	.cfi_def_cfa_offset 24
	popq	%rbp
	.cfi_def_cfa_offset 16
	popq	%r12
	.cfi_def_cfa_offset 8
	ret
	.p2align 4,,10
	.p2align 3
.L215:
	.cfi_restore_state
	leaq	8(%rsp), %rsi
	movq	%rbx, %rdi
	call	MPI_Comm_test_inter@PLT
.LEHE1:
	movl	8(%rsp), %eax
	testl	%eax, %eax
	leaq	ompi_mpi_comm_null(%rip), %rax
	cmovne	%rax, %rbx
	jmp	.L203
.L216:
	call	__stack_chk_fail@PLT
.L206:
	endbr64
	movq	%rax, %rbp
.L204:
	movq	%r12, %rdi
	movl	$16, %esi
	call	_ZdlPvm@PLT
	movq	%rbp, %rdi
.LEHB2:
	call	_Unwind_Resume@PLT
.LEHE2:
	.cfi_endproc
.LFE3943:
	.globl	__gxx_personality_v0
	.section	.gcc_except_table._ZNK3MPI9Intracomm5CloneEv,"aG",@progbits,_ZNK3MPI9Intracomm5CloneEv,comdat
.LLSDA3943:
	.byte	0xff
	.byte	0xff
	.byte	0x1
	.uleb128 .LLSDACSE3943-.LLSDACSB3943
.LLSDACSB3943:
	.uleb128 .LEHB0-.LFB3943
	.uleb128 .LEHE0-.LEHB0
	.uleb128 0
	.uleb128 0
	.uleb128 .LEHB1-.LFB3943
	.uleb128 .LEHE1-.LEHB1
	.uleb128 .L206-.LFB3943
	.uleb128 0
	.uleb128 .LEHB2-.LFB3943
	.uleb128 .LEHE2-.LEHB2
	.uleb128 0
	.uleb128 0
.LLSDACSE3943:
	.section	.text._ZNK3MPI9Intracomm5CloneEv,"axG",@progbits,_ZNK3MPI9Intracomm5CloneEv,comdat
	.size	_ZNK3MPI9Intracomm5CloneEv, .-_ZNK3MPI9Intracomm5CloneEv
	.section	.text._ZNK3MPI9Graphcomm5CloneEv,"axG",@progbits,_ZNK3MPI9Graphcomm5CloneEv,comdat
	.align 2
	.p2align 4
	.weak	_ZNK3MPI9Graphcomm5CloneEv
	.type	_ZNK3MPI9Graphcomm5CloneEv, @function
_ZNK3MPI9Graphcomm5CloneEv:
.LFB3977:
	.cfi_startproc
	.cfi_personality 0x9b,DW.ref.__gxx_personality_v0
	.cfi_lsda 0x1b,.LLSDA3977
	endbr64
	pushq	%r12
	.cfi_def_cfa_offset 16
	.cfi_offset 12, -16
	pushq	%rbp
	.cfi_def_cfa_offset 24
	.cfi_offset 6, -24
	subq	$40, %rsp
	.cfi_def_cfa_offset 64
	movq	8(%rdi), %rdi
	movq	%fs:40, %rax
	movq	%rax, 24(%rsp)
	xorl	%eax, %eax
	leaq	16(%rsp), %rsi
.LEHB3:
	call	MPI_Comm_dup@PLT
	movl	$16, %edi
	call	_Znwm@PLT
.LEHE3:
	movq	%rax, %rdi
	movq	%rax, %r12
.LEHB4:
	call	_ZN3MPI4CommC2Ev@PLT
	leaq	16+_ZTVN3MPI9GraphcommE(%rip), %rax
	leaq	12(%rsp), %rdi
	movl	$0, 8(%rsp)
	movq	%rax, (%r12)
	call	MPI_Initialized@PLT
	movl	12(%rsp), %eax
	movq	16(%rsp), %rdi
	testl	%eax, %eax
	je	.L218
	leaq	ompi_mpi_comm_null(%rip), %rax
	cmpq	%rax, %rdi
	je	.L218
	leaq	8(%rsp), %rsi
	call	MPI_Topo_test@PLT
.LEHE4:
	cmpl	$2, 8(%rsp)
	leaq	ompi_mpi_comm_null(%rip), %rdi
	je	.L228
	.p2align 4,,10
	.p2align 3
.L218:
	movq	%rdi, 8(%r12)
	movq	24(%rsp), %rax
	subq	%fs:40, %rax
	jne	.L229
	addq	$40, %rsp
	.cfi_remember_state
	.cfi_def_cfa_offset 24
	movq	%r12, %rax
	popq	%rbp
	.cfi_def_cfa_offset 16
	popq	%r12
	.cfi_def_cfa_offset 8
	ret
	.p2align 4,,10
	.p2align 3
.L228:
	.cfi_restore_state
	movq	16(%rsp), %rdi
	jmp	.L218
.L229:
	call	__stack_chk_fail@PLT
.L222:
	endbr64
	movq	%rax, %rbp
.L219:
	movq	%r12, %rdi
	movl	$16, %esi
	call	_ZdlPvm@PLT
	movq	%rbp, %rdi
.LEHB5:
	call	_Unwind_Resume@PLT
.LEHE5:
	.cfi_endproc
.LFE3977:
	.section	.gcc_except_table._ZNK3MPI9Graphcomm5CloneEv,"aG",@progbits,_ZNK3MPI9Graphcomm5CloneEv,comdat
.LLSDA3977:
	.byte	0xff
	.byte	0xff
	.byte	0x1
	.uleb128 .LLSDACSE3977-.LLSDACSB3977
.LLSDACSB3977:
	.uleb128 .LEHB3-.LFB3977
	.uleb128 .LEHE3-.LEHB3
	.uleb128 0
	.uleb128 0
	.uleb128 .LEHB4-.LFB3977
	.uleb128 .LEHE4-.LEHB4
	.uleb128 .L222-.LFB3977
	.uleb128 0
	.uleb128 .LEHB5-.LFB3977
	.uleb128 .LEHE5-.LEHB5
	.uleb128 0
	.uleb128 0
.LLSDACSE3977:
	.section	.text._ZNK3MPI9Graphcomm5CloneEv,"axG",@progbits,_ZNK3MPI9Graphcomm5CloneEv,comdat
	.size	_ZNK3MPI9Graphcomm5CloneEv, .-_ZNK3MPI9Graphcomm5CloneEv
	.section	.text._ZNK3MPI4Comm9Get_groupEv,"axG",@progbits,_ZNK3MPI4Comm9Get_groupEv,comdat
	.align 2
	.p2align 4
	.weak	_ZNK3MPI4Comm9Get_groupEv
	.type	_ZNK3MPI4Comm9Get_groupEv, @function
_ZNK3MPI4Comm9Get_groupEv:
.LFB3896:
	.cfi_startproc
	endbr64
	pushq	%r12
	.cfi_def_cfa_offset 16
	.cfi_offset 12, -16
	movq	%rsi, %r8
	movq	%rdi, %r12
	subq	$16, %rsp
	.cfi_def_cfa_offset 32
	movq	8(%r8), %rdi
	movq	%fs:40, %rax
	movq	%rax, 8(%rsp)
	xorl	%eax, %eax
	movq	%rsp, %rsi
	call	MPI_Comm_group@PLT
	leaq	16+_ZTVN3MPI5GroupE(%rip), %rax
	movq	%rax, (%r12)
	movq	(%rsp), %rax
	movq	%rax, 8(%r12)
	movq	8(%rsp), %rax
	subq	%fs:40, %rax
	jne	.L233
	addq	$16, %rsp
	.cfi_remember_state
	.cfi_def_cfa_offset 16
	movq	%r12, %rax
	popq	%r12
	.cfi_def_cfa_offset 8
	ret
.L233:
	.cfi_restore_state
	call	__stack_chk_fail@PLT
	.cfi_endproc
.LFE3896:
	.size	_ZNK3MPI4Comm9Get_groupEv, .-_ZNK3MPI4Comm9Get_groupEv
	.section	.text._ZNK3MPI4Comm16Sendrecv_replaceEPviRKNS_8DatatypeEiiii,"axG",@progbits,_ZNK3MPI4Comm16Sendrecv_replaceEPviRKNS_8DatatypeEiiii,comdat
	.align 2
	.p2align 4
	.weak	_ZNK3MPI4Comm16Sendrecv_replaceEPviRKNS_8DatatypeEiiii
	.type	_ZNK3MPI4Comm16Sendrecv_replaceEPviRKNS_8DatatypeEiiii, @function
_ZNK3MPI4Comm16Sendrecv_replaceEPviRKNS_8DatatypeEiiii:
.LFB3895:
	.cfi_startproc
	endbr64
	subq	$16, %rsp
	.cfi_def_cfa_offset 24
	movq	%rdi, %r10
	movq	%rcx, %r11
	movq	%rsi, %rdi
	movl	%edx, %esi
	movq	8(%r11), %rdx
	pushq	$0
	.cfi_def_cfa_offset 32
	movl	%r8d, %ecx
	pushq	8(%r10)
	.cfi_def_cfa_offset 40
	movl	48(%rsp), %eax
	movl	%r9d, %r8d
	pushq	%rax
	.cfi_def_cfa_offset 48
	movl	48(%rsp), %r9d
	call	MPI_Sendrecv_replace@PLT
	addq	$40, %rsp
	.cfi_def_cfa_offset 8
	ret
	.cfi_endproc
.LFE3895:
	.size	_ZNK3MPI4Comm16Sendrecv_replaceEPviRKNS_8DatatypeEiiii, .-_ZNK3MPI4Comm16Sendrecv_replaceEPviRKNS_8DatatypeEiiii
	.section	.text._ZNK3MPI4Comm16Sendrecv_replaceEPviRKNS_8DatatypeEiiiiRNS_6StatusE,"axG",@progbits,_ZNK3MPI4Comm16Sendrecv_replaceEPviRKNS_8DatatypeEiiiiRNS_6StatusE,comdat
	.align 2
	.p2align 4
	.weak	_ZNK3MPI4Comm16Sendrecv_replaceEPviRKNS_8DatatypeEiiiiRNS_6StatusE
	.type	_ZNK3MPI4Comm16Sendrecv_replaceEPviRKNS_8DatatypeEiiiiRNS_6StatusE, @function
_ZNK3MPI4Comm16Sendrecv_replaceEPviRKNS_8DatatypeEiiiiRNS_6StatusE:
.LFB3894:
	.cfi_startproc
	endbr64
	movq	%rcx, %r11
	movq	%rdi, %r10
	movq	%rsi, %rdi
	movl	%edx, %esi
	movq	8(%r11), %rdx
	addq	$8, 24(%rsp)
	movl	%r8d, %ecx
	movl	%r9d, %r8d
	movl	16(%rsp), %eax
	movq	8(%r10), %r10
	movl	8(%rsp), %r9d
	movq	%r10, 16(%rsp)
	movl	%eax, 8(%rsp)
	jmp	MPI_Sendrecv_replace@PLT
	.cfi_endproc
.LFE3894:
	.size	_ZNK3MPI4Comm16Sendrecv_replaceEPviRKNS_8DatatypeEiiiiRNS_6StatusE, .-_ZNK3MPI4Comm16Sendrecv_replaceEPviRKNS_8DatatypeEiiiiRNS_6StatusE
	.section	.text._ZNK3MPI4Comm8SendrecvEPKviRKNS_8DatatypeEiiPviS5_ii,"axG",@progbits,_ZNK3MPI4Comm8SendrecvEPKviRKNS_8DatatypeEiiPviS5_ii,comdat
	.align 2
	.p2align 4
	.weak	_ZNK3MPI4Comm8SendrecvEPKviRKNS_8DatatypeEiiPviS5_ii
	.type	_ZNK3MPI4Comm8SendrecvEPKviRKNS_8DatatypeEiiPviS5_ii, @function
_ZNK3MPI4Comm8SendrecvEPKviRKNS_8DatatypeEiiPviS5_ii:
.LFB3893:
	.cfi_startproc
	endbr64
	subq	$8, %rsp
	.cfi_def_cfa_offset 16
	movq	%rdi, %r10
	movq	%rcx, %r11
	movq	%rsi, %rdi
	movl	%edx, %esi
	movq	8(%r11), %rdx
	pushq	$0
	.cfi_def_cfa_offset 24
	movl	%r8d, %ecx
	pushq	8(%r10)
	.cfi_def_cfa_offset 32
	movl	64(%rsp), %eax
	movl	%r9d, %r8d
	pushq	%rax
	.cfi_def_cfa_offset 40
	movl	64(%rsp), %eax
	pushq	%rax
	.cfi_def_cfa_offset 48
	movq	64(%rsp), %rax
	pushq	8(%rax)
	.cfi_def_cfa_offset 56
	movl	64(%rsp), %eax
	pushq	%rax
	.cfi_def_cfa_offset 64
	movq	64(%rsp), %r9
	call	MPI_Sendrecv@PLT
	addq	$56, %rsp
	.cfi_def_cfa_offset 8
	ret
	.cfi_endproc
.LFE3893:
	.size	_ZNK3MPI4Comm8SendrecvEPKviRKNS_8DatatypeEiiPviS5_ii, .-_ZNK3MPI4Comm8SendrecvEPKviRKNS_8DatatypeEiiPviS5_ii
	.section	.text._ZNK3MPI4Comm8SendrecvEPKviRKNS_8DatatypeEiiPviS5_iiRNS_6StatusE,"axG",@progbits,_ZNK3MPI4Comm8SendrecvEPKviRKNS_8DatatypeEiiPviS5_iiRNS_6StatusE,comdat
	.align 2
	.p2align 4
	.weak	_ZNK3MPI4Comm8SendrecvEPKviRKNS_8DatatypeEiiPviS5_iiRNS_6StatusE
	.type	_ZNK3MPI4Comm8SendrecvEPKviRKNS_8DatatypeEiiPviS5_iiRNS_6StatusE, @function
_ZNK3MPI4Comm8SendrecvEPKviRKNS_8DatatypeEiiPviS5_iiRNS_6StatusE:
.LFB3892:
	.cfi_startproc
	endbr64
	pushq	%r12
	.cfi_def_cfa_offset 16
	.cfi_offset 12, -16
	movq	%rcx, %r12
	movl	%r8d, %ecx
	movl	%r9d, %r8d
	pushq	%rbp
	.cfi_def_cfa_offset 24
	.cfi_offset 6, -24
	movq	%rdi, %rbp
	movq	%rsi, %rdi
	movl	%edx, %esi
	pushq	%rbx
	.cfi_def_cfa_offset 32
	.cfi_offset 3, -32
	movq	8(%r12), %rdx
	movq	48(%rsp), %r10
	addq	$8, 72(%rsp)
	movl	56(%rsp), %r11d
	movq	8(%rbp), %rbp
	movl	64(%rsp), %ebx
	movl	40(%rsp), %eax
	movq	%rbp, 64(%rsp)
	movq	32(%rsp), %r9
	movl	%ebx, 56(%rsp)
	movl	%r11d, 48(%rsp)
	movq	8(%r10), %r10
	movl	%eax, 32(%rsp)
	movq	%r10, 40(%rsp)
	popq	%rbx
	.cfi_def_cfa_offset 24
	popq	%rbp
	.cfi_def_cfa_offset 16
	popq	%r12
	.cfi_def_cfa_offset 8
	jmp	MPI_Sendrecv@PLT
	.cfi_endproc
.LFE3892:
	.size	_ZNK3MPI4Comm8SendrecvEPKviRKNS_8DatatypeEiiPviS5_iiRNS_6StatusE, .-_ZNK3MPI4Comm8SendrecvEPKviRKNS_8DatatypeEiiPviS5_iiRNS_6StatusE
	.section	.text._ZNK3MPI4Comm9Recv_initEPviRKNS_8DatatypeEii,"axG",@progbits,_ZNK3MPI4Comm9Recv_initEPviRKNS_8DatatypeEii,comdat
	.align 2
	.p2align 4
	.weak	_ZNK3MPI4Comm9Recv_initEPviRKNS_8DatatypeEii
	.type	_ZNK3MPI4Comm9Recv_initEPviRKNS_8DatatypeEii, @function
_ZNK3MPI4Comm9Recv_initEPviRKNS_8DatatypeEii:
.LFB3891:
	.cfi_startproc
	endbr64
	pushq	%r12
	.cfi_def_cfa_offset 16
	.cfi_offset 12, -16
	movq	%rsi, %r10
	movq	%rdi, %r12
	movl	%ecx, %esi
	movq	%rdx, %rdi
	movl	%r9d, %ecx
	subq	$24, %rsp
	.cfi_def_cfa_offset 40
	movq	8(%r8), %rdx
	movq	8(%r10), %r9
	movq	%fs:40, %rax
	movq	%rax, 16(%rsp)
	xorl	%eax, %eax
	leaq	8(%rsp), %rax
	pushq	%rax
	.cfi_def_cfa_offset 48
	movl	48(%rsp), %r8d
	call	MPI_Recv_init@PLT
	movq	16(%rsp), %rax
	movq	%rax, 8(%r12)
	leaq	16+_ZTVN3MPI8PrequestE(%rip), %rax
	movq	%rax, (%r12)
	popq	%rax
	.cfi_def_cfa_offset 40
	popq	%rdx
	.cfi_def_cfa_offset 32
	movq	8(%rsp), %rax
	subq	%fs:40, %rax
	jne	.L244
	addq	$16, %rsp
	.cfi_remember_state
	.cfi_def_cfa_offset 16
	movq	%r12, %rax
	popq	%r12
	.cfi_def_cfa_offset 8
	ret
.L244:
	.cfi_restore_state
	call	__stack_chk_fail@PLT
	.cfi_endproc
.LFE3891:
	.size	_ZNK3MPI4Comm9Recv_initEPviRKNS_8DatatypeEii, .-_ZNK3MPI4Comm9Recv_initEPviRKNS_8DatatypeEii
	.section	.text._ZNK3MPI4Comm10Rsend_initEPKviRKNS_8DatatypeEii,"axG",@progbits,_ZNK3MPI4Comm10Rsend_initEPKviRKNS_8DatatypeEii,comdat
	.align 2
	.p2align 4
	.weak	_ZNK3MPI4Comm10Rsend_initEPKviRKNS_8DatatypeEii
	.type	_ZNK3MPI4Comm10Rsend_initEPKviRKNS_8DatatypeEii, @function
_ZNK3MPI4Comm10Rsend_initEPKviRKNS_8DatatypeEii:
.LFB3890:
	.cfi_startproc
	endbr64
	pushq	%r12
	.cfi_def_cfa_offset 16
	.cfi_offset 12, -16
	movq	%rsi, %r10
	movq	%rdi, %r12
	movl	%ecx, %esi
	movq	%rdx, %rdi
	movl	%r9d, %ecx
	subq	$24, %rsp
	.cfi_def_cfa_offset 40
	movq	8(%r8), %rdx
	movq	8(%r10), %r9
	movq	%fs:40, %rax
	movq	%rax, 16(%rsp)
	xorl	%eax, %eax
	leaq	8(%rsp), %rax
	pushq	%rax
	.cfi_def_cfa_offset 48
	movl	48(%rsp), %r8d
	call	MPI_Rsend_init@PLT
	movq	16(%rsp), %rax
	movq	%rax, 8(%r12)
	leaq	16+_ZTVN3MPI8PrequestE(%rip), %rax
	movq	%rax, (%r12)
	popq	%rax
	.cfi_def_cfa_offset 40
	popq	%rdx
	.cfi_def_cfa_offset 32
	movq	8(%rsp), %rax
	subq	%fs:40, %rax
	jne	.L248
	addq	$16, %rsp
	.cfi_remember_state
	.cfi_def_cfa_offset 16
	movq	%r12, %rax
	popq	%r12
	.cfi_def_cfa_offset 8
	ret
.L248:
	.cfi_restore_state
	call	__stack_chk_fail@PLT
	.cfi_endproc
.LFE3890:
	.size	_ZNK3MPI4Comm10Rsend_initEPKviRKNS_8DatatypeEii, .-_ZNK3MPI4Comm10Rsend_initEPKviRKNS_8DatatypeEii
	.section	.text._ZNK3MPI4Comm10Ssend_initEPKviRKNS_8DatatypeEii,"axG",@progbits,_ZNK3MPI4Comm10Ssend_initEPKviRKNS_8DatatypeEii,comdat
	.align 2
	.p2align 4
	.weak	_ZNK3MPI4Comm10Ssend_initEPKviRKNS_8DatatypeEii
	.type	_ZNK3MPI4Comm10Ssend_initEPKviRKNS_8DatatypeEii, @function
_ZNK3MPI4Comm10Ssend_initEPKviRKNS_8DatatypeEii:
.LFB3889:
	.cfi_startproc
	endbr64
	pushq	%r12
	.cfi_def_cfa_offset 16
	.cfi_offset 12, -16
	movq	%rsi, %r10
	movq	%rdi, %r12
	movl	%ecx, %esi
	movq	%rdx, %rdi
	movl	%r9d, %ecx
	subq	$24, %rsp
	.cfi_def_cfa_offset 40
	movq	8(%r8), %rdx
	movq	8(%r10), %r9
	movq	%fs:40, %rax
	movq	%rax, 16(%rsp)
	xorl	%eax, %eax
	leaq	8(%rsp), %rax
	pushq	%rax
	.cfi_def_cfa_offset 48
	movl	48(%rsp), %r8d
	call	MPI_Ssend_init@PLT
	movq	16(%rsp), %rax
	movq	%rax, 8(%r12)
	leaq	16+_ZTVN3MPI8PrequestE(%rip), %rax
	movq	%rax, (%r12)
	popq	%rax
	.cfi_def_cfa_offset 40
	popq	%rdx
	.cfi_def_cfa_offset 32
	movq	8(%rsp), %rax
	subq	%fs:40, %rax
	jne	.L252
	addq	$16, %rsp
	.cfi_remember_state
	.cfi_def_cfa_offset 16
	movq	%r12, %rax
	popq	%r12
	.cfi_def_cfa_offset 8
	ret
.L252:
	.cfi_restore_state
	call	__stack_chk_fail@PLT
	.cfi_endproc
.LFE3889:
	.size	_ZNK3MPI4Comm10Ssend_initEPKviRKNS_8DatatypeEii, .-_ZNK3MPI4Comm10Ssend_initEPKviRKNS_8DatatypeEii
	.section	.text._ZNK3MPI4Comm10Bsend_initEPKviRKNS_8DatatypeEii,"axG",@progbits,_ZNK3MPI4Comm10Bsend_initEPKviRKNS_8DatatypeEii,comdat
	.align 2
	.p2align 4
	.weak	_ZNK3MPI4Comm10Bsend_initEPKviRKNS_8DatatypeEii
	.type	_ZNK3MPI4Comm10Bsend_initEPKviRKNS_8DatatypeEii, @function
_ZNK3MPI4Comm10Bsend_initEPKviRKNS_8DatatypeEii:
.LFB3888:
	.cfi_startproc
	endbr64
	pushq	%r12
	.cfi_def_cfa_offset 16
	.cfi_offset 12, -16
	movq	%rsi, %r10
	movq	%rdi, %r12
	movl	%ecx, %esi
	movq	%rdx, %rdi
	movl	%r9d, %ecx
	subq	$24, %rsp
	.cfi_def_cfa_offset 40
	movq	8(%r8), %rdx
	movq	8(%r10), %r9
	movq	%fs:40, %rax
	movq	%rax, 16(%rsp)
	xorl	%eax, %eax
	leaq	8(%rsp), %rax
	pushq	%rax
	.cfi_def_cfa_offset 48
	movl	48(%rsp), %r8d
	call	MPI_Bsend_init@PLT
	movq	16(%rsp), %rax
	movq	%rax, 8(%r12)
	leaq	16+_ZTVN3MPI8PrequestE(%rip), %rax
	movq	%rax, (%r12)
	popq	%rax
	.cfi_def_cfa_offset 40
	popq	%rdx
	.cfi_def_cfa_offset 32
	movq	8(%rsp), %rax
	subq	%fs:40, %rax
	jne	.L256
	addq	$16, %rsp
	.cfi_remember_state
	.cfi_def_cfa_offset 16
	movq	%r12, %rax
	popq	%r12
	.cfi_def_cfa_offset 8
	ret
.L256:
	.cfi_restore_state
	call	__stack_chk_fail@PLT
	.cfi_endproc
.LFE3888:
	.size	_ZNK3MPI4Comm10Bsend_initEPKviRKNS_8DatatypeEii, .-_ZNK3MPI4Comm10Bsend_initEPKviRKNS_8DatatypeEii
	.section	.text._ZNK3MPI4Comm9Send_initEPKviRKNS_8DatatypeEii,"axG",@progbits,_ZNK3MPI4Comm9Send_initEPKviRKNS_8DatatypeEii,comdat
	.align 2
	.p2align 4
	.weak	_ZNK3MPI4Comm9Send_initEPKviRKNS_8DatatypeEii
	.type	_ZNK3MPI4Comm9Send_initEPKviRKNS_8DatatypeEii, @function
_ZNK3MPI4Comm9Send_initEPKviRKNS_8DatatypeEii:
.LFB3887:
	.cfi_startproc
	endbr64
	pushq	%r12
	.cfi_def_cfa_offset 16
	.cfi_offset 12, -16
	movq	%rsi, %r10
	movq	%rdi, %r12
	movl	%ecx, %esi
	movq	%rdx, %rdi
	movl	%r9d, %ecx
	subq	$24, %rsp
	.cfi_def_cfa_offset 40
	movq	8(%r8), %rdx
	movq	8(%r10), %r9
	movq	%fs:40, %rax
	movq	%rax, 16(%rsp)
	xorl	%eax, %eax
	leaq	8(%rsp), %rax
	pushq	%rax
	.cfi_def_cfa_offset 48
	movl	48(%rsp), %r8d
	call	MPI_Send_init@PLT
	movq	16(%rsp), %rax
	movq	%rax, 8(%r12)
	leaq	16+_ZTVN3MPI8PrequestE(%rip), %rax
	movq	%rax, (%r12)
	popq	%rax
	.cfi_def_cfa_offset 40
	popq	%rdx
	.cfi_def_cfa_offset 32
	movq	8(%rsp), %rax
	subq	%fs:40, %rax
	jne	.L260
	addq	$16, %rsp
	.cfi_remember_state
	.cfi_def_cfa_offset 16
	movq	%r12, %rax
	popq	%r12
	.cfi_def_cfa_offset 8
	ret
.L260:
	.cfi_restore_state
	call	__stack_chk_fail@PLT
	.cfi_endproc
.LFE3887:
	.size	_ZNK3MPI4Comm9Send_initEPKviRKNS_8DatatypeEii, .-_ZNK3MPI4Comm9Send_initEPKviRKNS_8DatatypeEii
	.section	.text._ZNK3MPI4Comm5ProbeEii,"axG",@progbits,_ZNK3MPI4Comm5ProbeEii,comdat
	.align 2
	.p2align 4
	.weak	_ZNK3MPI4Comm5ProbeEii
	.type	_ZNK3MPI4Comm5ProbeEii, @function
_ZNK3MPI4Comm5ProbeEii:
.LFB3886:
	.cfi_startproc
	endbr64
	movq	%rdi, %r8
	movl	%esi, %edi
	movl	%edx, %esi
	xorl	%ecx, %ecx
	movq	8(%r8), %rdx
	jmp	MPI_Probe@PLT
	.cfi_endproc
.LFE3886:
	.size	_ZNK3MPI4Comm5ProbeEii, .-_ZNK3MPI4Comm5ProbeEii
	.section	.text._ZNK3MPI4Comm5ProbeEiiRNS_6StatusE,"axG",@progbits,_ZNK3MPI4Comm5ProbeEiiRNS_6StatusE,comdat
	.align 2
	.p2align 4
	.weak	_ZNK3MPI4Comm5ProbeEiiRNS_6StatusE
	.type	_ZNK3MPI4Comm5ProbeEiiRNS_6StatusE, @function
_ZNK3MPI4Comm5ProbeEiiRNS_6StatusE:
.LFB3885:
	.cfi_startproc
	endbr64
	movq	%rdi, %r8
	movl	%esi, %edi
	movl	%edx, %esi
	addq	$8, %rcx
	movq	8(%r8), %rdx
	jmp	MPI_Probe@PLT
	.cfi_endproc
.LFE3885:
	.size	_ZNK3MPI4Comm5ProbeEiiRNS_6StatusE, .-_ZNK3MPI4Comm5ProbeEiiRNS_6StatusE
	.section	.text._ZNK3MPI4Comm6IprobeEii,"axG",@progbits,_ZNK3MPI4Comm6IprobeEii,comdat
	.align 2
	.p2align 4
	.weak	_ZNK3MPI4Comm6IprobeEii
	.type	_ZNK3MPI4Comm6IprobeEii, @function
_ZNK3MPI4Comm6IprobeEii:
.LFB3884:
	.cfi_startproc
	endbr64
	movq	%rdi, %r8
	subq	$24, %rsp
	.cfi_def_cfa_offset 32
	movl	%esi, %edi
	movl	%edx, %esi
	movq	%fs:40, %rax
	movq	%rax, 8(%rsp)
	xorl	%eax, %eax
	movq	8(%r8), %rdx
	leaq	4(%rsp), %rcx
	xorl	%r8d, %r8d
	call	MPI_Iprobe@PLT
	movl	4(%rsp), %eax
	testl	%eax, %eax
	setne	%al
	movq	8(%rsp), %rdx
	subq	%fs:40, %rdx
	jne	.L266
	addq	$24, %rsp
	.cfi_remember_state
	.cfi_def_cfa_offset 8
	ret
.L266:
	.cfi_restore_state
	call	__stack_chk_fail@PLT
	.cfi_endproc
.LFE3884:
	.size	_ZNK3MPI4Comm6IprobeEii, .-_ZNK3MPI4Comm6IprobeEii
	.section	.text._ZNK3MPI4Comm6IprobeEiiRNS_6StatusE,"axG",@progbits,_ZNK3MPI4Comm6IprobeEiiRNS_6StatusE,comdat
	.align 2
	.p2align 4
	.weak	_ZNK3MPI4Comm6IprobeEiiRNS_6StatusE
	.type	_ZNK3MPI4Comm6IprobeEiiRNS_6StatusE, @function
_ZNK3MPI4Comm6IprobeEiiRNS_6StatusE:
.LFB3883:
	.cfi_startproc
	endbr64
	movq	%rdi, %r9
	subq	$24, %rsp
	.cfi_def_cfa_offset 32
	movl	%esi, %edi
	movq	%rcx, %r8
	movq	%fs:40, %rax
	movq	%rax, 8(%rsp)
	xorl	%eax, %eax
	movl	%edx, %esi
	movq	8(%r9), %rdx
	addq	$8, %r8
	leaq	4(%rsp), %rcx
	call	MPI_Iprobe@PLT
	movl	4(%rsp), %eax
	testl	%eax, %eax
	setne	%al
	movq	8(%rsp), %rdx
	subq	%fs:40, %rdx
	jne	.L270
	addq	$24, %rsp
	.cfi_remember_state
	.cfi_def_cfa_offset 8
	ret
.L270:
	.cfi_restore_state
	call	__stack_chk_fail@PLT
	.cfi_endproc
.LFE3883:
	.size	_ZNK3MPI4Comm6IprobeEiiRNS_6StatusE, .-_ZNK3MPI4Comm6IprobeEiiRNS_6StatusE
	.section	.text._ZNK3MPI4Comm5IrecvEPviRKNS_8DatatypeEii,"axG",@progbits,_ZNK3MPI4Comm5IrecvEPviRKNS_8DatatypeEii,comdat
	.align 2
	.p2align 4
	.weak	_ZNK3MPI4Comm5IrecvEPviRKNS_8DatatypeEii
	.type	_ZNK3MPI4Comm5IrecvEPviRKNS_8DatatypeEii, @function
_ZNK3MPI4Comm5IrecvEPviRKNS_8DatatypeEii:
.LFB3882:
	.cfi_startproc
	endbr64
	pushq	%r12
	.cfi_def_cfa_offset 16
	.cfi_offset 12, -16
	movq	%rsi, %r10
	movq	%rdi, %r12
	movl	%ecx, %esi
	movq	%rdx, %rdi
	movl	%r9d, %ecx
	subq	$24, %rsp
	.cfi_def_cfa_offset 40
	movq	8(%r8), %rdx
	movq	8(%r10), %r9
	movq	%fs:40, %rax
	movq	%rax, 16(%rsp)
	xorl	%eax, %eax
	leaq	8(%rsp), %rax
	pushq	%rax
	.cfi_def_cfa_offset 48
	movl	48(%rsp), %r8d
	call	MPI_Irecv@PLT
	leaq	16+_ZTVN3MPI7RequestE(%rip), %rax
	movq	%rax, (%r12)
	movq	16(%rsp), %rax
	movq	%rax, 8(%r12)
	popq	%rax
	.cfi_def_cfa_offset 40
	popq	%rdx
	.cfi_def_cfa_offset 32
	movq	8(%rsp), %rax
	subq	%fs:40, %rax
	jne	.L274
	addq	$16, %rsp
	.cfi_remember_state
	.cfi_def_cfa_offset 16
	movq	%r12, %rax
	popq	%r12
	.cfi_def_cfa_offset 8
	ret
.L274:
	.cfi_restore_state
	call	__stack_chk_fail@PLT
	.cfi_endproc
.LFE3882:
	.size	_ZNK3MPI4Comm5IrecvEPviRKNS_8DatatypeEii, .-_ZNK3MPI4Comm5IrecvEPviRKNS_8DatatypeEii
	.section	.text._ZNK3MPI4Comm6IrsendEPKviRKNS_8DatatypeEii,"axG",@progbits,_ZNK3MPI4Comm6IrsendEPKviRKNS_8DatatypeEii,comdat
	.align 2
	.p2align 4
	.weak	_ZNK3MPI4Comm6IrsendEPKviRKNS_8DatatypeEii
	.type	_ZNK3MPI4Comm6IrsendEPKviRKNS_8DatatypeEii, @function
_ZNK3MPI4Comm6IrsendEPKviRKNS_8DatatypeEii:
.LFB3881:
	.cfi_startproc
	endbr64
	pushq	%r12
	.cfi_def_cfa_offset 16
	.cfi_offset 12, -16
	movq	%rsi, %r10
	movq	%rdi, %r12
	movl	%ecx, %esi
	movq	%rdx, %rdi
	movl	%r9d, %ecx
	subq	$24, %rsp
	.cfi_def_cfa_offset 40
	movq	8(%r8), %rdx
	movq	8(%r10), %r9
	movq	%fs:40, %rax
	movq	%rax, 16(%rsp)
	xorl	%eax, %eax
	leaq	8(%rsp), %rax
	pushq	%rax
	.cfi_def_cfa_offset 48
	movl	48(%rsp), %r8d
	call	MPI_Irsend@PLT
	leaq	16+_ZTVN3MPI7RequestE(%rip), %rax
	movq	%rax, (%r12)
	movq	16(%rsp), %rax
	movq	%rax, 8(%r12)
	popq	%rax
	.cfi_def_cfa_offset 40
	popq	%rdx
	.cfi_def_cfa_offset 32
	movq	8(%rsp), %rax
	subq	%fs:40, %rax
	jne	.L278
	addq	$16, %rsp
	.cfi_remember_state
	.cfi_def_cfa_offset 16
	movq	%r12, %rax
	popq	%r12
	.cfi_def_cfa_offset 8
	ret
.L278:
	.cfi_restore_state
	call	__stack_chk_fail@PLT
	.cfi_endproc
.LFE3881:
	.size	_ZNK3MPI4Comm6IrsendEPKviRKNS_8DatatypeEii, .-_ZNK3MPI4Comm6IrsendEPKviRKNS_8DatatypeEii
	.section	.text._ZNK3MPI4Comm6IssendEPKviRKNS_8DatatypeEii,"axG",@progbits,_ZNK3MPI4Comm6IssendEPKviRKNS_8DatatypeEii,comdat
	.align 2
	.p2align 4
	.weak	_ZNK3MPI4Comm6IssendEPKviRKNS_8DatatypeEii
	.type	_ZNK3MPI4Comm6IssendEPKviRKNS_8DatatypeEii, @function
_ZNK3MPI4Comm6IssendEPKviRKNS_8DatatypeEii:
.LFB3880:
	.cfi_startproc
	endbr64
	pushq	%r12
	.cfi_def_cfa_offset 16
	.cfi_offset 12, -16
	movq	%rsi, %r10
	movq	%rdi, %r12
	movl	%ecx, %esi
	movq	%rdx, %rdi
	movl	%r9d, %ecx
	subq	$24, %rsp
	.cfi_def_cfa_offset 40
	movq	8(%r8), %rdx
	movq	8(%r10), %r9
	movq	%fs:40, %rax
	movq	%rax, 16(%rsp)
	xorl	%eax, %eax
	leaq	8(%rsp), %rax
	pushq	%rax
	.cfi_def_cfa_offset 48
	movl	48(%rsp), %r8d
	call	MPI_Issend@PLT
	leaq	16+_ZTVN3MPI7RequestE(%rip), %rax
	movq	%rax, (%r12)
	movq	16(%rsp), %rax
	movq	%rax, 8(%r12)
	popq	%rax
	.cfi_def_cfa_offset 40
	popq	%rdx
	.cfi_def_cfa_offset 32
	movq	8(%rsp), %rax
	subq	%fs:40, %rax
	jne	.L282
	addq	$16, %rsp
	.cfi_remember_state
	.cfi_def_cfa_offset 16
	movq	%r12, %rax
	popq	%r12
	.cfi_def_cfa_offset 8
	ret
.L282:
	.cfi_restore_state
	call	__stack_chk_fail@PLT
	.cfi_endproc
.LFE3880:
	.size	_ZNK3MPI4Comm6IssendEPKviRKNS_8DatatypeEii, .-_ZNK3MPI4Comm6IssendEPKviRKNS_8DatatypeEii
	.section	.text._ZNK3MPI4Comm6IbsendEPKviRKNS_8DatatypeEii,"axG",@progbits,_ZNK3MPI4Comm6IbsendEPKviRKNS_8DatatypeEii,comdat
	.align 2
	.p2align 4
	.weak	_ZNK3MPI4Comm6IbsendEPKviRKNS_8DatatypeEii
	.type	_ZNK3MPI4Comm6IbsendEPKviRKNS_8DatatypeEii, @function
_ZNK3MPI4Comm6IbsendEPKviRKNS_8DatatypeEii:
.LFB3879:
	.cfi_startproc
	endbr64
	pushq	%r12
	.cfi_def_cfa_offset 16
	.cfi_offset 12, -16
	movq	%rsi, %r10
	movq	%rdi, %r12
	movl	%ecx, %esi
	movq	%rdx, %rdi
	movl	%r9d, %ecx
	subq	$24, %rsp
	.cfi_def_cfa_offset 40
	movq	8(%r8), %rdx
	movq	8(%r10), %r9
	movq	%fs:40, %rax
	movq	%rax, 16(%rsp)
	xorl	%eax, %eax
	leaq	8(%rsp), %rax
	pushq	%rax
	.cfi_def_cfa_offset 48
	movl	48(%rsp), %r8d
	call	MPI_Ibsend@PLT
	leaq	16+_ZTVN3MPI7RequestE(%rip), %rax
	movq	%rax, (%r12)
	movq	16(%rsp), %rax
	movq	%rax, 8(%r12)
	popq	%rax
	.cfi_def_cfa_offset 40
	popq	%rdx
	.cfi_def_cfa_offset 32
	movq	8(%rsp), %rax
	subq	%fs:40, %rax
	jne	.L286
	addq	$16, %rsp
	.cfi_remember_state
	.cfi_def_cfa_offset 16
	movq	%r12, %rax
	popq	%r12
	.cfi_def_cfa_offset 8
	ret
.L286:
	.cfi_restore_state
	call	__stack_chk_fail@PLT
	.cfi_endproc
.LFE3879:
	.size	_ZNK3MPI4Comm6IbsendEPKviRKNS_8DatatypeEii, .-_ZNK3MPI4Comm6IbsendEPKviRKNS_8DatatypeEii
	.section	.text._ZNK3MPI4Comm5IsendEPKviRKNS_8DatatypeEii,"axG",@progbits,_ZNK3MPI4Comm5IsendEPKviRKNS_8DatatypeEii,comdat
	.align 2
	.p2align 4
	.weak	_ZNK3MPI4Comm5IsendEPKviRKNS_8DatatypeEii
	.type	_ZNK3MPI4Comm5IsendEPKviRKNS_8DatatypeEii, @function
_ZNK3MPI4Comm5IsendEPKviRKNS_8DatatypeEii:
.LFB3878:
	.cfi_startproc
	endbr64
	pushq	%r12
	.cfi_def_cfa_offset 16
	.cfi_offset 12, -16
	movq	%rsi, %r10
	movq	%rdi, %r12
	movl	%ecx, %esi
	movq	%rdx, %rdi
	movl	%r9d, %ecx
	subq	$24, %rsp
	.cfi_def_cfa_offset 40
	movq	8(%r8), %rdx
	movq	8(%r10), %r9
	movq	%fs:40, %rax
	movq	%rax, 16(%rsp)
	xorl	%eax, %eax
	leaq	8(%rsp), %rax
	pushq	%rax
	.cfi_def_cfa_offset 48
	movl	48(%rsp), %r8d
	call	MPI_Isend@PLT
	leaq	16+_ZTVN3MPI7RequestE(%rip), %rax
	movq	%rax, (%r12)
	movq	16(%rsp), %rax
	movq	%rax, 8(%r12)
	popq	%rax
	.cfi_def_cfa_offset 40
	popq	%rdx
	.cfi_def_cfa_offset 32
	movq	8(%rsp), %rax
	subq	%fs:40, %rax
	jne	.L290
	addq	$16, %rsp
	.cfi_remember_state
	.cfi_def_cfa_offset 16
	movq	%r12, %rax
	popq	%r12
	.cfi_def_cfa_offset 8
	ret
.L290:
	.cfi_restore_state
	call	__stack_chk_fail@PLT
	.cfi_endproc
.LFE3878:
	.size	_ZNK3MPI4Comm5IsendEPKviRKNS_8DatatypeEii, .-_ZNK3MPI4Comm5IsendEPKviRKNS_8DatatypeEii
	.section	.text._ZNK3MPI4Comm5RsendEPKviRKNS_8DatatypeEii,"axG",@progbits,_ZNK3MPI4Comm5RsendEPKviRKNS_8DatatypeEii,comdat
	.align 2
	.p2align 4
	.weak	_ZNK3MPI4Comm5RsendEPKviRKNS_8DatatypeEii
	.type	_ZNK3MPI4Comm5RsendEPKviRKNS_8DatatypeEii, @function
_ZNK3MPI4Comm5RsendEPKviRKNS_8DatatypeEii:
.LFB3877:
	.cfi_startproc
	endbr64
	movq	%rdi, %r10
	movq	%rcx, %r11
	movq	%rsi, %rdi
	movl	%r8d, %ecx
	movl	%edx, %esi
	movl	%r9d, %r8d
	movq	8(%r11), %rdx
	movq	8(%r10), %r9
	jmp	MPI_Rsend@PLT
	.cfi_endproc
.LFE3877:
	.size	_ZNK3MPI4Comm5RsendEPKviRKNS_8DatatypeEii, .-_ZNK3MPI4Comm5RsendEPKviRKNS_8DatatypeEii
	.section	.text._ZNK3MPI4Comm5SsendEPKviRKNS_8DatatypeEii,"axG",@progbits,_ZNK3MPI4Comm5SsendEPKviRKNS_8DatatypeEii,comdat
	.align 2
	.p2align 4
	.weak	_ZNK3MPI4Comm5SsendEPKviRKNS_8DatatypeEii
	.type	_ZNK3MPI4Comm5SsendEPKviRKNS_8DatatypeEii, @function
_ZNK3MPI4Comm5SsendEPKviRKNS_8DatatypeEii:
.LFB3876:
	.cfi_startproc
	endbr64
	movq	%rdi, %r10
	movq	%rcx, %r11
	movq	%rsi, %rdi
	movl	%r8d, %ecx
	movl	%edx, %esi
	movl	%r9d, %r8d
	movq	8(%r11), %rdx
	movq	8(%r10), %r9
	jmp	MPI_Ssend@PLT
	.cfi_endproc
.LFE3876:
	.size	_ZNK3MPI4Comm5SsendEPKviRKNS_8DatatypeEii, .-_ZNK3MPI4Comm5SsendEPKviRKNS_8DatatypeEii
	.section	.text._ZNK3MPI4Comm5BsendEPKviRKNS_8DatatypeEii,"axG",@progbits,_ZNK3MPI4Comm5BsendEPKviRKNS_8DatatypeEii,comdat
	.align 2
	.p2align 4
	.weak	_ZNK3MPI4Comm5BsendEPKviRKNS_8DatatypeEii
	.type	_ZNK3MPI4Comm5BsendEPKviRKNS_8DatatypeEii, @function
_ZNK3MPI4Comm5BsendEPKviRKNS_8DatatypeEii:
.LFB3875:
	.cfi_startproc
	endbr64
	movq	%rdi, %r10
	movq	%rcx, %r11
	movq	%rsi, %rdi
	movl	%r8d, %ecx
	movl	%edx, %esi
	movl	%r9d, %r8d
	movq	8(%r11), %rdx
	movq	8(%r10), %r9
	jmp	MPI_Bsend@PLT
	.cfi_endproc
.LFE3875:
	.size	_ZNK3MPI4Comm5BsendEPKviRKNS_8DatatypeEii, .-_ZNK3MPI4Comm5BsendEPKviRKNS_8DatatypeEii
	.section	.text._ZNK3MPI4Comm4RecvEPviRKNS_8DatatypeEii,"axG",@progbits,_ZNK3MPI4Comm4RecvEPviRKNS_8DatatypeEii,comdat
	.align 2
	.p2align 4
	.weak	_ZNK3MPI4Comm4RecvEPviRKNS_8DatatypeEii
	.type	_ZNK3MPI4Comm4RecvEPviRKNS_8DatatypeEii, @function
_ZNK3MPI4Comm4RecvEPviRKNS_8DatatypeEii:
.LFB3874:
	.cfi_startproc
	endbr64
	subq	$16, %rsp
	.cfi_def_cfa_offset 24
	movq	%rdi, %r11
	movq	%rcx, %r10
	movq	%rsi, %rdi
	movl	%r8d, %ecx
	movl	%edx, %esi
	movl	%r9d, %r8d
	movq	8(%r10), %rdx
	movq	8(%r11), %r9
	pushq	$0
	.cfi_def_cfa_offset 32
	call	MPI_Recv@PLT
	addq	$24, %rsp
	.cfi_def_cfa_offset 8
	ret
	.cfi_endproc
.LFE3874:
	.size	_ZNK3MPI4Comm4RecvEPviRKNS_8DatatypeEii, .-_ZNK3MPI4Comm4RecvEPviRKNS_8DatatypeEii
	.section	.text._ZNK3MPI4Comm4RecvEPviRKNS_8DatatypeEiiRNS_6StatusE,"axG",@progbits,_ZNK3MPI4Comm4RecvEPviRKNS_8DatatypeEiiRNS_6StatusE,comdat
	.align 2
	.p2align 4
	.weak	_ZNK3MPI4Comm4RecvEPviRKNS_8DatatypeEiiRNS_6StatusE
	.type	_ZNK3MPI4Comm4RecvEPviRKNS_8DatatypeEiiRNS_6StatusE, @function
_ZNK3MPI4Comm4RecvEPviRKNS_8DatatypeEiiRNS_6StatusE:
.LFB3873:
	.cfi_startproc
	endbr64
	movq	%rdi, %r11
	movq	%rcx, %r10
	movq	%rsi, %rdi
	movl	%r8d, %ecx
	movl	%edx, %esi
	movl	%r9d, %r8d
	movq	8(%r10), %rdx
	movq	8(%r11), %r9
	addq	$8, 8(%rsp)
	jmp	MPI_Recv@PLT
	.cfi_endproc
.LFE3873:
	.size	_ZNK3MPI4Comm4RecvEPviRKNS_8DatatypeEiiRNS_6StatusE, .-_ZNK3MPI4Comm4RecvEPviRKNS_8DatatypeEiiRNS_6StatusE
	.section	.text._ZNK3MPI4Comm4SendEPKviRKNS_8DatatypeEii,"axG",@progbits,_ZNK3MPI4Comm4SendEPKviRKNS_8DatatypeEii,comdat
	.align 2
	.p2align 4
	.weak	_ZNK3MPI4Comm4SendEPKviRKNS_8DatatypeEii
	.type	_ZNK3MPI4Comm4SendEPKviRKNS_8DatatypeEii, @function
_ZNK3MPI4Comm4SendEPKviRKNS_8DatatypeEii:
.LFB3872:
	.cfi_startproc
	endbr64
	movq	%rdi, %r10
	movq	%rcx, %r11
	movq	%rsi, %rdi
	movl	%r8d, %ecx
	movl	%edx, %esi
	movl	%r9d, %r8d
	movq	8(%r11), %rdx
	movq	8(%r10), %r9
	jmp	MPI_Send@PLT
	.cfi_endproc
.LFE3872:
	.size	_ZNK3MPI4Comm4SendEPKviRKNS_8DatatypeEii, .-_ZNK3MPI4Comm4SendEPKviRKNS_8DatatypeEii
	.section	.text._ZNK3MPI9Graphcomm3MapEiPKiS2_,"axG",@progbits,_ZNK3MPI9Graphcomm3MapEiPKiS2_,comdat
	.align 2
	.p2align 4
	.weak	_ZNK3MPI9Graphcomm3MapEiPKiS2_
	.type	_ZNK3MPI9Graphcomm3MapEiPKiS2_, @function
_ZNK3MPI9Graphcomm3MapEiPKiS2_:
.LFB3976:
	.cfi_startproc
	endbr64
	subq	$24, %rsp
	.cfi_def_cfa_offset 32
	movq	8(%rdi), %rdi
	movq	%fs:40, %rax
	movq	%rax, 8(%rsp)
	xorl	%eax, %eax
	leaq	4(%rsp), %r8
	call	MPI_Graph_map@PLT
	movl	4(%rsp), %eax
	movq	8(%rsp), %rdx
	subq	%fs:40, %rdx
	jne	.L301
	addq	$24, %rsp
	.cfi_remember_state
	.cfi_def_cfa_offset 8
	ret
.L301:
	.cfi_restore_state
	call	__stack_chk_fail@PLT
	.cfi_endproc
.LFE3976:
	.size	_ZNK3MPI9Graphcomm3MapEiPKiS2_, .-_ZNK3MPI9Graphcomm3MapEiPKiS2_
	.section	.text._ZNK3MPI9Graphcomm13Get_neighborsEiiPi,"axG",@progbits,_ZNK3MPI9Graphcomm13Get_neighborsEiiPi,comdat
	.align 2
	.p2align 4
	.weak	_ZNK3MPI9Graphcomm13Get_neighborsEiiPi
	.type	_ZNK3MPI9Graphcomm13Get_neighborsEiiPi, @function
_ZNK3MPI9Graphcomm13Get_neighborsEiiPi:
.LFB3975:
	.cfi_startproc
	endbr64
	movq	8(%rdi), %rdi
	jmp	MPI_Graph_neighbors@PLT
	.cfi_endproc
.LFE3975:
	.size	_ZNK3MPI9Graphcomm13Get_neighborsEiiPi, .-_ZNK3MPI9Graphcomm13Get_neighborsEiiPi
	.section	.text._ZNK3MPI9Graphcomm19Get_neighbors_countEi,"axG",@progbits,_ZNK3MPI9Graphcomm19Get_neighbors_countEi,comdat
	.align 2
	.p2align 4
	.weak	_ZNK3MPI9Graphcomm19Get_neighbors_countEi
	.type	_ZNK3MPI9Graphcomm19Get_neighbors_countEi, @function
_ZNK3MPI9Graphcomm19Get_neighbors_countEi:
.LFB3974:
	.cfi_startproc
	endbr64
	subq	$24, %rsp
	.cfi_def_cfa_offset 32
	movq	8(%rdi), %rdi
	movq	%fs:40, %rax
	movq	%rax, 8(%rsp)
	xorl	%eax, %eax
	leaq	4(%rsp), %rdx
	call	MPI_Graph_neighbors_count@PLT
	movl	4(%rsp), %eax
	movq	8(%rsp), %rdx
	subq	%fs:40, %rdx
	jne	.L306
	addq	$24, %rsp
	.cfi_remember_state
	.cfi_def_cfa_offset 8
	ret
.L306:
	.cfi_restore_state
	call	__stack_chk_fail@PLT
	.cfi_endproc
.LFE3974:
	.size	_ZNK3MPI9Graphcomm19Get_neighbors_countEi, .-_ZNK3MPI9Graphcomm19Get_neighbors_countEi
	.section	.text._ZNK3MPI9Graphcomm8Get_topoEiiPiS1_,"axG",@progbits,_ZNK3MPI9Graphcomm8Get_topoEiiPiS1_,comdat
	.align 2
	.p2align 4
	.weak	_ZNK3MPI9Graphcomm8Get_topoEiiPiS1_
	.type	_ZNK3MPI9Graphcomm8Get_topoEiiPiS1_, @function
_ZNK3MPI9Graphcomm8Get_topoEiiPiS1_:
.LFB3973:
	.cfi_startproc
	endbr64
	movq	8(%rdi), %rdi
	jmp	MPI_Graph_get@PLT
	.cfi_endproc
.LFE3973:
	.size	_ZNK3MPI9Graphcomm8Get_topoEiiPiS1_, .-_ZNK3MPI9Graphcomm8Get_topoEiiPiS1_
	.section	.text._ZNK3MPI9Graphcomm8Get_dimsEPiS1_,"axG",@progbits,_ZNK3MPI9Graphcomm8Get_dimsEPiS1_,comdat
	.align 2
	.p2align 4
	.weak	_ZNK3MPI9Graphcomm8Get_dimsEPiS1_
	.type	_ZNK3MPI9Graphcomm8Get_dimsEPiS1_, @function
_ZNK3MPI9Graphcomm8Get_dimsEPiS1_:
.LFB3972:
	.cfi_startproc
	endbr64
	movq	8(%rdi), %rdi
	jmp	MPI_Graphdims_get@PLT
	.cfi_endproc
.LFE3972:
	.size	_ZNK3MPI9Graphcomm8Get_dimsEPiS1_, .-_ZNK3MPI9Graphcomm8Get_dimsEPiS1_
	.section	.text._ZN3MPI9Intracomm14Spawn_multipleEiPPKcPS3_PKiPKNS_4InfoEiPi,"axG",@progbits,_ZN3MPI9Intracomm14Spawn_multipleEiPPKcPS3_PKiPKNS_4InfoEiPi,comdat
	.align 2
	.p2align 4
	.weak	_ZN3MPI9Intracomm14Spawn_multipleEiPPKcPS3_PKiPKNS_4InfoEiPi
	.type	_ZN3MPI9Intracomm14Spawn_multipleEiPPKcPS3_PKiPKNS_4InfoEiPi, @function
_ZN3MPI9Intracomm14Spawn_multipleEiPPKcPS3_PKiPKNS_4InfoEiPi:
.LFB3955:
	.cfi_startproc
	endbr64
	pushq	%r15
	.cfi_def_cfa_offset 16
	.cfi_offset 15, -16
	movq	%rsi, %r15
	pushq	%r14
	.cfi_def_cfa_offset 24
	.cfi_offset 14, -24
	movq	%rcx, %r14
	pushq	%r13
	.cfi_def_cfa_offset 32
	.cfi_offset 13, -32
	movq	%rdi, %r13
	movslq	%edx, %rdi
	pushq	%r12
	.cfi_def_cfa_offset 40
	.cfi_offset 12, -40
	pushq	%rbp
	.cfi_def_cfa_offset 48
	.cfi_offset 6, -48
	pushq	%rbx
	.cfi_def_cfa_offset 56
	.cfi_offset 3, -56
	subq	$56, %rsp
	.cfi_def_cfa_offset 112
	movq	128(%rsp), %rsi
	movq	112(%rsp), %rbx
	movq	%r8, 24(%rsp)
	movq	%r9, 16(%rsp)
	movq	%rsi, 8(%rsp)
	movq	%fs:40, %rax
	movq	%rax, 40(%rsp)
	movq	%rdi, %rax
	shrq	$60, %rax
	jne	.L310
	movq	%rdi, %r12
	salq	$3, %rdi
	call	_Znam@PLT
	testl	%r12d, %r12d
	movq	8(%rsp), %rsi
	movq	16(%rsp), %rcx
	movq	24(%rsp), %r10
	movq	%rax, %rbp
	jle	.L312
	leal	-1(%r12), %edi
	cmpl	$1, %edi
	jbe	.L316
	movl	%edi, %edx
	xorl	%eax, %eax
	shrl	%edx
	salq	$4, %rdx
	.p2align 4,,10
	.p2align 3
.L314:
	movdqu	8(%rbx,%rax,2), %xmm0
	movdqu	24(%rbx,%rax,2), %xmm1
	punpcklqdq	%xmm1, %xmm0
	movups	%xmm0, 0(%rbp,%rax)
	addq	$16, %rax
	cmpq	%rax, %rdx
	jne	.L314
	andl	$-2, %edi
.L313:
	movslq	%edi, %rax
	addl	$1, %edi
	movq	%rax, %rdx
	leaq	0(,%rax,8), %r9
	salq	$4, %rdx
	movq	8(%rbx,%rdx), %r8
	movq	%r8, 0(%rbp,%rax,8)
	cmpl	%edi, %r12d
	jle	.L312
	movq	24(%rbx,%rdx), %rax
	movq	%rax, 8(%rbp,%r9)
.L312:
	subq	$8, %rsp
	.cfi_def_cfa_offset 120
	movq	%rbp, %r8
	movq	%r10, %rdx
	movl	%r12d, %edi
	pushq	%rsi
	.cfi_def_cfa_offset 128
	movq	%r14, %rsi
	leaq	48(%rsp), %rax
	pushq	%rax
	.cfi_def_cfa_offset 136
	pushq	8(%r15)
	.cfi_def_cfa_offset 144
	movl	152(%rsp), %r9d
	call	MPI_Comm_spawn_multiple@PLT
	addq	$32, %rsp
	.cfi_def_cfa_offset 112
	movq	%rbp, %rdi
	call	_ZdaPv@PLT
	movq	32(%rsp), %rax
	movq	%rax, 8(%r13)
	leaq	16+_ZTVN3MPI9IntercommE(%rip), %rax
	movq	%rax, 0(%r13)
	movq	40(%rsp), %rax
	subq	%fs:40, %rax
	jne	.L319
	addq	$56, %rsp
	.cfi_remember_state
	.cfi_def_cfa_offset 56
	movq	%r13, %rax
	popq	%rbx
	.cfi_def_cfa_offset 48
	popq	%rbp
	.cfi_def_cfa_offset 40
	popq	%r12
	.cfi_def_cfa_offset 32
	popq	%r13
	.cfi_def_cfa_offset 24
	popq	%r14
	.cfi_def_cfa_offset 16
	popq	%r15
	.cfi_def_cfa_offset 8
	ret
.L316:
	.cfi_restore_state
	xorl	%edi, %edi
	jmp	.L313
.L319:
	call	__stack_chk_fail@PLT
.L310:
	call	__cxa_throw_bad_array_new_length@PLT
	.cfi_endproc
.LFE3955:
	.size	_ZN3MPI9Intracomm14Spawn_multipleEiPPKcPS3_PKiPKNS_4InfoEiPi, .-_ZN3MPI9Intracomm14Spawn_multipleEiPPKcPS3_PKiPKNS_4InfoEiPi
	.section	.text._ZNK3MPI9Intracomm5SpawnEPKcPS2_iRKNS_4InfoEiPi,"axG",@progbits,_ZNK3MPI9Intracomm5SpawnEPKcPS2_iRKNS_4InfoEiPi,comdat
	.align 2
	.p2align 4
	.weak	_ZNK3MPI9Intracomm5SpawnEPKcPS2_iRKNS_4InfoEiPi
	.type	_ZNK3MPI9Intracomm5SpawnEPKcPS2_iRKNS_4InfoEiPi, @function
_ZNK3MPI9Intracomm5SpawnEPKcPS2_iRKNS_4InfoEiPi:
.LFB3952:
	.cfi_startproc
	endbr64
	pushq	%r12
	.cfi_def_cfa_offset 16
	.cfi_offset 12, -16
	movq	%rsi, %r10
	movq	%rcx, %rsi
	movq	%rdi, %r12
	movq	%rdx, %rdi
	movl	%r8d, %edx
	subq	$16, %rsp
	.cfi_def_cfa_offset 32
	movq	8(%r9), %rcx
	movq	%fs:40, %rax
	movq	%rax, 8(%rsp)
	movq	8(%r10), %rax
	pushq	40(%rsp)
	.cfi_def_cfa_offset 40
	leaq	8(%rsp), %r8
	pushq	%r8
	.cfi_def_cfa_offset 48
	movl	48(%rsp), %r8d
	movq	%rax, %r9
	call	MPI_Comm_spawn@PLT
	movq	16(%rsp), %rax
	movq	%rax, 8(%r12)
	leaq	16+_ZTVN3MPI9IntercommE(%rip), %rax
	movq	%rax, (%r12)
	popq	%rax
	.cfi_def_cfa_offset 40
	popq	%rdx
	.cfi_def_cfa_offset 32
	movq	8(%rsp), %rax
	subq	%fs:40, %rax
	jne	.L323
	addq	$16, %rsp
	.cfi_remember_state
	.cfi_def_cfa_offset 16
	movq	%r12, %rax
	popq	%r12
	.cfi_def_cfa_offset 8
	ret
.L323:
	.cfi_restore_state
	call	__stack_chk_fail@PLT
	.cfi_endproc
.LFE3952:
	.size	_ZNK3MPI9Intracomm5SpawnEPKcPS2_iRKNS_4InfoEiPi, .-_ZNK3MPI9Intracomm5SpawnEPKcPS2_iRKNS_4InfoEiPi
	.section	.text._ZNK3MPI9Intracomm5SpawnEPKcPS2_iRKNS_4InfoEi,"axG",@progbits,_ZNK3MPI9Intracomm5SpawnEPKcPS2_iRKNS_4InfoEi,comdat
	.align 2
	.p2align 4
	.weak	_ZNK3MPI9Intracomm5SpawnEPKcPS2_iRKNS_4InfoEi
	.type	_ZNK3MPI9Intracomm5SpawnEPKcPS2_iRKNS_4InfoEi, @function
_ZNK3MPI9Intracomm5SpawnEPKcPS2_iRKNS_4InfoEi:
.LFB3951:
	.cfi_startproc
	endbr64
	pushq	%r12
	.cfi_def_cfa_offset 16
	.cfi_offset 12, -16
	movq	%rsi, %r10
	movq	%rcx, %rsi
	movq	%rdi, %r12
	movq	%rdx, %rdi
	movl	%r8d, %edx
	subq	$16, %rsp
	.cfi_def_cfa_offset 32
	movq	8(%r9), %rcx
	movq	%fs:40, %rax
	movq	%rax, 8(%rsp)
	movq	8(%r10), %rax
	pushq	$0
	.cfi_def_cfa_offset 40
	leaq	8(%rsp), %r8
	pushq	%r8
	.cfi_def_cfa_offset 48
	movl	48(%rsp), %r8d
	movq	%rax, %r9
	call	MPI_Comm_spawn@PLT
	movq	16(%rsp), %rax
	movq	%rax, 8(%r12)
	leaq	16+_ZTVN3MPI9IntercommE(%rip), %rax
	movq	%rax, (%r12)
	popq	%rax
	.cfi_def_cfa_offset 40
	popq	%rdx
	.cfi_def_cfa_offset 32
	movq	8(%rsp), %rax
	subq	%fs:40, %rax
	jne	.L327
	addq	$16, %rsp
	.cfi_remember_state
	.cfi_def_cfa_offset 16
	movq	%r12, %rax
	popq	%r12
	.cfi_def_cfa_offset 8
	ret
.L327:
	.cfi_restore_state
	call	__stack_chk_fail@PLT
	.cfi_endproc
.LFE3951:
	.size	_ZNK3MPI9Intracomm5SpawnEPKcPS2_iRKNS_4InfoEi, .-_ZNK3MPI9Intracomm5SpawnEPKcPS2_iRKNS_4InfoEi
	.section	.text._ZNK3MPI9Intracomm7ConnectEPKcRKNS_4InfoEi,"axG",@progbits,_ZNK3MPI9Intracomm7ConnectEPKcRKNS_4InfoEi,comdat
	.align 2
	.p2align 4
	.weak	_ZNK3MPI9Intracomm7ConnectEPKcRKNS_4InfoEi
	.type	_ZNK3MPI9Intracomm7ConnectEPKcRKNS_4InfoEi, @function
_ZNK3MPI9Intracomm7ConnectEPKcRKNS_4InfoEi:
.LFB3950:
	.cfi_startproc
	endbr64
	pushq	%r12
	.cfi_def_cfa_offset 16
	.cfi_offset 12, -16
	movq	%rcx, %r9
	movq	%rdi, %r12
	movq	%rdx, %rdi
	movl	%r8d, %edx
	subq	$16, %rsp
	.cfi_def_cfa_offset 32
	movq	8(%rsi), %rcx
	movq	8(%r9), %rsi
	movq	%fs:40, %rax
	movq	%rax, 8(%rsp)
	xorl	%eax, %eax
	movq	%rsp, %r8
	call	MPI_Comm_connect@PLT
	movq	(%rsp), %rax
	movq	%rax, 8(%r12)
	leaq	16+_ZTVN3MPI9IntercommE(%rip), %rax
	movq	%rax, (%r12)
	movq	8(%rsp), %rax
	subq	%fs:40, %rax
	jne	.L331
	addq	$16, %rsp
	.cfi_remember_state
	.cfi_def_cfa_offset 16
	movq	%r12, %rax
	popq	%r12
	.cfi_def_cfa_offset 8
	ret
.L331:
	.cfi_restore_state
	call	__stack_chk_fail@PLT
	.cfi_endproc
.LFE3950:
	.size	_ZNK3MPI9Intracomm7ConnectEPKcRKNS_4InfoEi, .-_ZNK3MPI9Intracomm7ConnectEPKcRKNS_4InfoEi
	.section	.text._ZNK3MPI9Intracomm6AcceptEPKcRKNS_4InfoEi,"axG",@progbits,_ZNK3MPI9Intracomm6AcceptEPKcRKNS_4InfoEi,comdat
	.align 2
	.p2align 4
	.weak	_ZNK3MPI9Intracomm6AcceptEPKcRKNS_4InfoEi
	.type	_ZNK3MPI9Intracomm6AcceptEPKcRKNS_4InfoEi, @function
_ZNK3MPI9Intracomm6AcceptEPKcRKNS_4InfoEi:
.LFB3949:
	.cfi_startproc
	endbr64
	pushq	%r12
	.cfi_def_cfa_offset 16
	.cfi_offset 12, -16
	movq	%rcx, %r9
	movq	%rdi, %r12
	movq	%rdx, %rdi
	movl	%r8d, %edx
	subq	$16, %rsp
	.cfi_def_cfa_offset 32
	movq	8(%rsi), %rcx
	movq	8(%r9), %rsi
	movq	%fs:40, %rax
	movq	%rax, 8(%rsp)
	xorl	%eax, %eax
	movq	%rsp, %r8
	call	MPI_Comm_accept@PLT
	movq	(%rsp), %rax
	movq	%rax, 8(%r12)
	leaq	16+_ZTVN3MPI9IntercommE(%rip), %rax
	movq	%rax, (%r12)
	movq	8(%rsp), %rax
	subq	%fs:40, %rax
	jne	.L335
	addq	$16, %rsp
	.cfi_remember_state
	.cfi_def_cfa_offset 16
	movq	%r12, %rax
	popq	%r12
	.cfi_def_cfa_offset 8
	ret
.L335:
	.cfi_restore_state
	call	__stack_chk_fail@PLT
	.cfi_endproc
.LFE3949:
	.size	_ZNK3MPI9Intracomm6AcceptEPKcRKNS_4InfoEi, .-_ZNK3MPI9Intracomm6AcceptEPKcRKNS_4InfoEi
	.section	.text._ZNK3MPI9Intracomm16Create_intercommEiRKNS_4CommEii,"axG",@progbits,_ZNK3MPI9Intracomm16Create_intercommEiRKNS_4CommEii,comdat
	.align 2
	.p2align 4
	.weak	_ZNK3MPI9Intracomm16Create_intercommEiRKNS_4CommEii
	.type	_ZNK3MPI9Intracomm16Create_intercommEiRKNS_4CommEii, @function
_ZNK3MPI9Intracomm16Create_intercommEiRKNS_4CommEii:
.LFB3946:
	.cfi_startproc
	endbr64
	pushq	%r12
	.cfi_def_cfa_offset 16
	.cfi_offset 12, -16
	movq	%rsi, %r10
	movq	%rcx, %r11
	movq	%rdi, %r12
	movl	%edx, %esi
	movl	%r8d, %ecx
	movl	%r9d, %r8d
	subq	$16, %rsp
	.cfi_def_cfa_offset 32
	movq	8(%r11), %rdx
	movq	8(%r10), %rdi
	movq	%fs:40, %rax
	movq	%rax, 8(%rsp)
	xorl	%eax, %eax
	movq	%rsp, %r9
	call	MPI_Intercomm_create@PLT
	movq	(%rsp), %rax
	movq	%rax, 8(%r12)
	leaq	16+_ZTVN3MPI9IntercommE(%rip), %rax
	movq	%rax, (%r12)
	movq	8(%rsp), %rax
	subq	%fs:40, %rax
	jne	.L339
	addq	$16, %rsp
	.cfi_remember_state
	.cfi_def_cfa_offset 16
	movq	%r12, %rax
	popq	%r12
	.cfi_def_cfa_offset 8
	ret
.L339:
	.cfi_restore_state
	call	__stack_chk_fail@PLT
	.cfi_endproc
.LFE3946:
	.size	_ZNK3MPI9Intracomm16Create_intercommEiRKNS_4CommEii, .-_ZNK3MPI9Intracomm16Create_intercommEiRKNS_4CommEii
	.section	.text._ZNK3MPI9Intracomm6ExscanEPKvPviRKNS_8DatatypeERKNS_2OpE,"axG",@progbits,_ZNK3MPI9Intracomm6ExscanEPKvPviRKNS_8DatatypeERKNS_2OpE,comdat
	.align 2
	.p2align 4
	.weak	_ZNK3MPI9Intracomm6ExscanEPKvPviRKNS_8DatatypeERKNS_2OpE
	.type	_ZNK3MPI9Intracomm6ExscanEPKvPviRKNS_8DatatypeERKNS_2OpE, @function
_ZNK3MPI9Intracomm6ExscanEPKvPviRKNS_8DatatypeERKNS_2OpE:
.LFB3941:
	.cfi_startproc
	endbr64
	movq	%rdi, %r10
	movq	%r9, %rax
	movq	%rsi, %rdi
	movq	%rdx, %rsi
	movq	8(%r10), %r9
	movl	%ecx, %edx
	movq	8(%r8), %rcx
	movq	8(%rax), %r8
	jmp	MPI_Exscan@PLT
	.cfi_endproc
.LFE3941:
	.size	_ZNK3MPI9Intracomm6ExscanEPKvPviRKNS_8DatatypeERKNS_2OpE, .-_ZNK3MPI9Intracomm6ExscanEPKvPviRKNS_8DatatypeERKNS_2OpE
	.section	.text._ZNK3MPI9Intracomm4ScanEPKvPviRKNS_8DatatypeERKNS_2OpE,"axG",@progbits,_ZNK3MPI9Intracomm4ScanEPKvPviRKNS_8DatatypeERKNS_2OpE,comdat
	.align 2
	.p2align 4
	.weak	_ZNK3MPI9Intracomm4ScanEPKvPviRKNS_8DatatypeERKNS_2OpE
	.type	_ZNK3MPI9Intracomm4ScanEPKvPviRKNS_8DatatypeERKNS_2OpE, @function
_ZNK3MPI9Intracomm4ScanEPKvPviRKNS_8DatatypeERKNS_2OpE:
.LFB3940:
	.cfi_startproc
	endbr64
	movq	%rdi, %r10
	movq	%r9, %rax
	movq	%rsi, %rdi
	movq	%rdx, %rsi
	movq	8(%r10), %r9
	movl	%ecx, %edx
	movq	8(%r8), %rcx
	movq	8(%rax), %r8
	jmp	MPI_Scan@PLT
	.cfi_endproc
.LFE3940:
	.size	_ZNK3MPI9Intracomm4ScanEPKvPviRKNS_8DatatypeERKNS_2OpE, .-_ZNK3MPI9Intracomm4ScanEPKvPviRKNS_8DatatypeERKNS_2OpE
	.section	.text._ZNK3MPI8Cartcomm3MapEiPKiPKb,"axG",@progbits,_ZNK3MPI8Cartcomm3MapEiPKiPKb,comdat
	.align 2
	.p2align 4
	.weak	_ZNK3MPI8Cartcomm3MapEiPKiPKb
	.type	_ZNK3MPI8Cartcomm3MapEiPKiPKb, @function
_ZNK3MPI8Cartcomm3MapEiPKiPKb:
.LFB3966:
	.cfi_startproc
	endbr64
	pushq	%r15
	.cfi_def_cfa_offset 16
	.cfi_offset 15, -16
	pushq	%r14
	.cfi_def_cfa_offset 24
	.cfi_offset 14, -24
	pushq	%r13
	.cfi_def_cfa_offset 32
	.cfi_offset 13, -32
	pushq	%r12
	.cfi_def_cfa_offset 40
	.cfi_offset 12, -40
	pushq	%rbp
	.cfi_def_cfa_offset 48
	.cfi_offset 6, -48
	pushq	%rbx
	.cfi_def_cfa_offset 56
	.cfi_offset 3, -56
	movslq	%esi, %rbx
	subq	$24, %rsp
	.cfi_def_cfa_offset 80
	movq	%fs:40, %rax
	movq	%rax, 8(%rsp)
	movabsq	$2305843009213693950, %rax
	cmpq	%rax, %rbx
	ja	.L343
	movq	%rdi, %r15
	movq	%rdx, %r14
	movq	%rcx, %r12
	movq	%rbx, %r13
	leaq	0(,%rbx,4), %rdi
	call	_Znam@PLT
	movq	%rax, %rbp
	xorl	%eax, %eax
	testl	%ebx, %ebx
	jle	.L345
	.p2align 4,,10
	.p2align 3
.L346:
	movzbl	(%r12,%rax), %edx
	movl	%edx, 0(%rbp,%rax,4)
	addq	$1, %rax
	cmpq	%rbx, %rax
	jne	.L346
.L345:
	movq	8(%r15), %rdi
	leaq	4(%rsp), %r8
	movq	%rbp, %rcx
	movq	%r14, %rdx
	movl	%r13d, %esi
	call	MPI_Cart_map@PLT
	movq	%rbp, %rdi
	call	_ZdaPv@PLT
	movl	4(%rsp), %eax
	movq	8(%rsp), %rdx
	subq	%fs:40, %rdx
	jne	.L351
	addq	$24, %rsp
	.cfi_remember_state
	.cfi_def_cfa_offset 56
	popq	%rbx
	.cfi_def_cfa_offset 48
	popq	%rbp
	.cfi_def_cfa_offset 40
	popq	%r12
	.cfi_def_cfa_offset 32
	popq	%r13
	.cfi_def_cfa_offset 24
	popq	%r14
	.cfi_def_cfa_offset 16
	popq	%r15
	.cfi_def_cfa_offset 8
	ret
.L351:
	.cfi_restore_state
	call	__stack_chk_fail@PLT
.L343:
	call	__cxa_throw_bad_array_new_length@PLT
	.cfi_endproc
.LFE3966:
	.size	_ZNK3MPI8Cartcomm3MapEiPKiPKb, .-_ZNK3MPI8Cartcomm3MapEiPKiPKb
	.section	.text._ZNK3MPI8Cartcomm7Get_dimEv,"axG",@progbits,_ZNK3MPI8Cartcomm7Get_dimEv,comdat
	.align 2
	.p2align 4
	.weak	_ZNK3MPI8Cartcomm7Get_dimEv
	.type	_ZNK3MPI8Cartcomm7Get_dimEv, @function
_ZNK3MPI8Cartcomm7Get_dimEv:
.LFB3960:
	.cfi_startproc
	endbr64
	subq	$24, %rsp
	.cfi_def_cfa_offset 32
	movq	8(%rdi), %rdi
	movq	%fs:40, %rax
	movq	%rax, 8(%rsp)
	xorl	%eax, %eax
	leaq	4(%rsp), %rsi
	call	MPI_Cartdim_get@PLT
	movl	4(%rsp), %eax
	movq	8(%rsp), %rdx
	subq	%fs:40, %rdx
	jne	.L355
	addq	$24, %rsp
	.cfi_remember_state
	.cfi_def_cfa_offset 8
	ret
.L355:
	.cfi_restore_state
	call	__stack_chk_fail@PLT
	.cfi_endproc
.LFE3960:
	.size	_ZNK3MPI8Cartcomm7Get_dimEv, .-_ZNK3MPI8Cartcomm7Get_dimEv
	.section	.text._ZNK3MPI8Cartcomm3SubEPKb,"axG",@progbits,_ZNK3MPI8Cartcomm3SubEPKb,comdat
	.align 2
	.p2align 4
	.weak	_ZNK3MPI8Cartcomm3SubEPKb
	.type	_ZNK3MPI8Cartcomm3SubEPKb, @function
_ZNK3MPI8Cartcomm3SubEPKb:
.LFB3965:
	.cfi_startproc
	endbr64
	pushq	%r13
	.cfi_def_cfa_offset 16
	.cfi_offset 13, -16
	movq	%rsi, %r13
	pushq	%r12
	.cfi_def_cfa_offset 24
	.cfi_offset 12, -24
	movq	%rdi, %r12
	pushq	%rbp
	.cfi_def_cfa_offset 32
	.cfi_offset 6, -32
	pushq	%rbx
	.cfi_def_cfa_offset 40
	.cfi_offset 3, -40
	movq	%rdx, %rbx
	subq	$40, %rsp
	.cfi_def_cfa_offset 80
	movq	8(%r13), %rdi
	movq	%fs:40, %rax
	movq	%rax, 24(%rsp)
	xorl	%eax, %eax
	leaq	4(%rsp), %rsi
	call	MPI_Cartdim_get@PLT
	movslq	4(%rsp), %rdi
	movabsq	$2305843009213693950, %rax
	cmpq	%rax, %rdi
	ja	.L357
	salq	$2, %rdi
	call	_Znam@PLT
	movslq	4(%rsp), %rcx
	movq	%rax, %rbp
	xorl	%eax, %eax
	testl	%ecx, %ecx
	jle	.L362
	.p2align 4,,10
	.p2align 3
.L361:
	movzbl	(%rbx,%rax), %edx
	movl	%edx, 0(%rbp,%rax,4)
	addq	$1, %rax
	cmpq	%rcx, %rax
	jne	.L361
.L362:
	movq	8(%r13), %rdi
	leaq	16(%rsp), %rdx
	movq	%rbp, %rsi
	call	MPI_Cart_sub@PLT
	movq	%rbp, %rdi
	call	_ZdaPv@PLT
	movq	%r12, %rdi
	call	_ZN3MPI4CommC2Ev@PLT
	leaq	16+_ZTVN3MPI8CartcommE(%rip), %rax
	leaq	12(%rsp), %rdi
	movl	$0, 8(%rsp)
	movq	%rax, (%r12)
	call	MPI_Initialized@PLT
	movl	12(%rsp), %eax
	testl	%eax, %eax
	je	.L364
	movq	16(%rsp), %rdi
	leaq	ompi_mpi_comm_null(%rip), %rbx
	cmpq	%rbx, %rdi
	je	.L365
	leaq	8(%rsp), %rsi
	call	MPI_Topo_test@PLT
	cmpl	$1, 8(%rsp)
	movq	%rbx, %rdi
	je	.L364
	.p2align 4,,10
	.p2align 3
.L365:
	movq	%rdi, 8(%r12)
	movq	24(%rsp), %rax
	subq	%fs:40, %rax
	jne	.L371
	addq	$40, %rsp
	.cfi_remember_state
	.cfi_def_cfa_offset 40
	movq	%r12, %rax
	popq	%rbx
	.cfi_def_cfa_offset 32
	popq	%rbp
	.cfi_def_cfa_offset 24
	popq	%r12
	.cfi_def_cfa_offset 16
	popq	%r13
	.cfi_def_cfa_offset 8
	ret
	.p2align 4,,10
	.p2align 3
.L364:
	.cfi_restore_state
	movq	16(%rsp), %rdi
	jmp	.L365
.L371:
	call	__stack_chk_fail@PLT
.L357:
	call	__cxa_throw_bad_array_new_length@PLT
	.cfi_endproc
.LFE3965:
	.size	_ZNK3MPI8Cartcomm3SubEPKb, .-_ZNK3MPI8Cartcomm3SubEPKb
	.section	.text._ZNK3MPI8Cartcomm5ShiftEiiRiS1_,"axG",@progbits,_ZNK3MPI8Cartcomm5ShiftEiiRiS1_,comdat
	.align 2
	.p2align 4
	.weak	_ZNK3MPI8Cartcomm5ShiftEiiRiS1_
	.type	_ZNK3MPI8Cartcomm5ShiftEiiRiS1_, @function
_ZNK3MPI8Cartcomm5ShiftEiiRiS1_:
.LFB3964:
	.cfi_startproc
	endbr64
	movq	8(%rdi), %rdi
	jmp	MPI_Cart_shift@PLT
	.cfi_endproc
.LFE3964:
	.size	_ZNK3MPI8Cartcomm5ShiftEiiRiS1_, .-_ZNK3MPI8Cartcomm5ShiftEiiRiS1_
	.section	.text._ZNK3MPI8Cartcomm10Get_coordsEiiPi,"axG",@progbits,_ZNK3MPI8Cartcomm10Get_coordsEiiPi,comdat
	.align 2
	.p2align 4
	.weak	_ZNK3MPI8Cartcomm10Get_coordsEiiPi
	.type	_ZNK3MPI8Cartcomm10Get_coordsEiiPi, @function
_ZNK3MPI8Cartcomm10Get_coordsEiiPi:
.LFB3963:
	.cfi_startproc
	endbr64
	movq	8(%rdi), %rdi
	jmp	MPI_Cart_coords@PLT
	.cfi_endproc
.LFE3963:
	.size	_ZNK3MPI8Cartcomm10Get_coordsEiiPi, .-_ZNK3MPI8Cartcomm10Get_coordsEiiPi
	.section	.text._ZNK3MPI8Cartcomm13Get_cart_rankEPKi,"axG",@progbits,_ZNK3MPI8Cartcomm13Get_cart_rankEPKi,comdat
	.align 2
	.p2align 4
	.weak	_ZNK3MPI8Cartcomm13Get_cart_rankEPKi
	.type	_ZNK3MPI8Cartcomm13Get_cart_rankEPKi, @function
_ZNK3MPI8Cartcomm13Get_cart_rankEPKi:
.LFB3962:
	.cfi_startproc
	endbr64
	subq	$24, %rsp
	.cfi_def_cfa_offset 32
	movq	8(%rdi), %rdi
	movq	%fs:40, %rax
	movq	%rax, 8(%rsp)
	xorl	%eax, %eax
	leaq	4(%rsp), %rdx
	call	MPI_Cart_rank@PLT
	movl	4(%rsp), %eax
	movq	8(%rsp), %rdx
	subq	%fs:40, %rdx
	jne	.L377
	addq	$24, %rsp
	.cfi_remember_state
	.cfi_def_cfa_offset 8
	ret
.L377:
	.cfi_restore_state
	call	__stack_chk_fail@PLT
	.cfi_endproc
.LFE3962:
	.size	_ZNK3MPI8Cartcomm13Get_cart_rankEPKi, .-_ZNK3MPI8Cartcomm13Get_cart_rankEPKi
	.section	.text._ZNK3MPI8Cartcomm8Get_topoEiPiPbS1_,"axG",@progbits,_ZNK3MPI8Cartcomm8Get_topoEiPiPbS1_,comdat
	.align 2
	.p2align 4
	.weak	_ZNK3MPI8Cartcomm8Get_topoEiPiPbS1_
	.type	_ZNK3MPI8Cartcomm8Get_topoEiPiPbS1_, @function
_ZNK3MPI8Cartcomm8Get_topoEiPiPbS1_:
.LFB3961:
	.cfi_startproc
	endbr64
	movabsq	$2305843009213693950, %rax
	pushq	%r15
	.cfi_def_cfa_offset 16
	.cfi_offset 15, -16
	pushq	%r14
	.cfi_def_cfa_offset 24
	.cfi_offset 14, -24
	pushq	%r13
	.cfi_def_cfa_offset 32
	.cfi_offset 13, -32
	movq	%rdi, %r13
	movslq	%esi, %rdi
	pushq	%r12
	.cfi_def_cfa_offset 40
	.cfi_offset 12, -40
	pushq	%rbp
	.cfi_def_cfa_offset 48
	.cfi_offset 6, -48
	pushq	%rbx
	.cfi_def_cfa_offset 56
	.cfi_offset 3, -56
	subq	$24, %rsp
	.cfi_def_cfa_offset 80
	movq	%r8, 8(%rsp)
	cmpq	%rax, %rdi
	ja	.L379
	movq	%rdi, %r12
	salq	$2, %rdi
	movq	%rcx, %rbx
	movq	%rdx, %r15
	call	_Znam@PLT
	leal	-1(%r12), %r14d
	movq	8(%rsp), %r8
	movl	%r12d, %ecx
	movq	%rax, %rbp
	xorl	%eax, %eax
	testl	%r12d, %r12d
	jle	.L397
	.p2align 4,,10
	.p2align 3
.L382:
	movzbl	(%rbx,%rax), %edx
	movl	%edx, 0(%rbp,%rax,4)
	addq	$1, %rax
	cmpq	%rcx, %rax
	jne	.L382
	movq	8(%r13), %rdi
	movq	%rbp, %rcx
	movq	%r15, %rdx
	movl	%r12d, %esi
	call	MPI_Cart_get@PLT
	cmpl	$14, %r14d
	jbe	.L389
	movl	%r12d, %ecx
	movq	%rbp, %rax
	pxor	%xmm4, %xmm4
	movq	%rbx, %rdx
	shrl	$4, %ecx
	movdqa	.LC0(%rip), %xmm5
	movdqa	.LC1(%rip), %xmm6
	salq	$6, %rcx
	addq	%rbp, %rcx
	.p2align 4,,10
	.p2align 3
.L385:
	movdqu	(%rax), %xmm0
	movdqu	16(%rax), %xmm3
	addq	$64, %rax
	addq	$16, %rdx
	movdqu	-32(%rax), %xmm1
	movdqu	-16(%rax), %xmm2
	pcmpeqd	%xmm4, %xmm0
	pcmpeqd	%xmm4, %xmm3
	pcmpeqd	%xmm4, %xmm1
	pcmpeqd	%xmm4, %xmm2
	pandn	%xmm5, %xmm3
	pandn	%xmm5, %xmm0
	movdqa	%xmm0, %xmm7
	punpcklwd	%xmm3, %xmm0
	pandn	%xmm5, %xmm2
	punpckhwd	%xmm3, %xmm7
	movdqa	%xmm0, %xmm3
	pandn	%xmm5, %xmm1
	punpckhwd	%xmm7, %xmm3
	punpcklwd	%xmm7, %xmm0
	punpcklwd	%xmm3, %xmm0
	movdqa	%xmm1, %xmm3
	punpcklwd	%xmm2, %xmm1
	punpckhwd	%xmm2, %xmm3
	movdqa	%xmm1, %xmm2
	pand	%xmm6, %xmm0
	punpckhwd	%xmm3, %xmm2
	punpcklwd	%xmm3, %xmm1
	punpcklwd	%xmm2, %xmm1
	pand	%xmm6, %xmm1
	packuswb	%xmm1, %xmm0
	movups	%xmm0, -16(%rdx)
	cmpq	%rcx, %rax
	jne	.L385
	movl	%r12d, %eax
	andl	$-16, %eax
	testb	$15, %r12b
	je	.L388
.L387:
	movslq	%eax, %rcx
	movl	0(%rbp,%rcx,4), %r10d
	leaq	0(,%rcx,4), %rdx
	testl	%r10d, %r10d
	setne	(%rbx,%rcx)
	leal	1(%rax), %ecx
	cmpl	%ecx, %r12d
	jle	.L388
	movl	4(%rbp,%rdx), %r9d
	movslq	%ecx, %rcx
	testl	%r9d, %r9d
	setne	(%rbx,%rcx)
	leal	2(%rax), %ecx
	cmpl	%ecx, %r12d
	jle	.L388
	movl	8(%rbp,%rdx), %r8d
	movslq	%ecx, %rcx
	testl	%r8d, %r8d
	setne	(%rbx,%rcx)
	leal	3(%rax), %ecx
	cmpl	%ecx, %r12d
	jle	.L388
	movl	12(%rbp,%rdx), %edi
	movslq	%ecx, %rcx
	testl	%edi, %edi
	setne	(%rbx,%rcx)
	leal	4(%rax), %ecx
	cmpl	%ecx, %r12d
	jle	.L388
	movl	16(%rbp,%rdx), %esi
	movslq	%ecx, %rcx
	testl	%esi, %esi
	setne	(%rbx,%rcx)
	leal	5(%rax), %ecx
	cmpl	%ecx, %r12d
	jle	.L388
	movl	20(%rbp,%rdx), %r15d
	movslq	%ecx, %rcx
	testl	%r15d, %r15d
	setne	(%rbx,%rcx)
	leal	6(%rax), %ecx
	cmpl	%ecx, %r12d
	jle	.L388
	movl	24(%rbp,%rdx), %r14d
	movslq	%ecx, %rcx
	testl	%r14d, %r14d
	setne	(%rbx,%rcx)
	leal	7(%rax), %ecx
	cmpl	%ecx, %r12d
	jle	.L388
	movl	28(%rbp,%rdx), %r13d
	movslq	%ecx, %rcx
	testl	%r13d, %r13d
	setne	(%rbx,%rcx)
	leal	8(%rax), %ecx
	cmpl	%ecx, %r12d
	jle	.L388
	movl	32(%rbp,%rdx), %r11d
	movslq	%ecx, %rcx
	testl	%r11d, %r11d
	setne	(%rbx,%rcx)
	leal	9(%rax), %ecx
	cmpl	%ecx, %r12d
	jle	.L388
	movl	36(%rbp,%rdx), %r10d
	movslq	%ecx, %rcx
	testl	%r10d, %r10d
	setne	(%rbx,%rcx)
	leal	10(%rax), %ecx
	cmpl	%ecx, %r12d
	jle	.L388
	movl	40(%rbp,%rdx), %r9d
	movslq	%ecx, %rcx
	testl	%r9d, %r9d
	setne	(%rbx,%rcx)
	leal	11(%rax), %ecx
	cmpl	%ecx, %r12d
	jle	.L388
	movl	44(%rbp,%rdx), %r8d
	movslq	%ecx, %rcx
	testl	%r8d, %r8d
	setne	(%rbx,%rcx)
	leal	12(%rax), %ecx
	cmpl	%ecx, %r12d
	jle	.L388
	movl	48(%rbp,%rdx), %edi
	movslq	%ecx, %rcx
	testl	%edi, %edi
	setne	(%rbx,%rcx)
	leal	13(%rax), %ecx
	cmpl	%ecx, %r12d
	jle	.L388
	movl	52(%rbp,%rdx), %esi
	movslq	%ecx, %rcx
	testl	%esi, %esi
	setne	(%rbx,%rcx)
	addl	$14, %eax
	cmpl	%eax, %r12d
	jle	.L388
	movl	56(%rbp,%rdx), %edx
	cltq
	testl	%edx, %edx
	setne	(%rbx,%rax)
.L388:
	addq	$24, %rsp
	.cfi_remember_state
	.cfi_def_cfa_offset 56
	movq	%rbp, %rdi
	popq	%rbx
	.cfi_def_cfa_offset 48
	popq	%rbp
	.cfi_def_cfa_offset 40
	popq	%r12
	.cfi_def_cfa_offset 32
	popq	%r13
	.cfi_def_cfa_offset 24
	popq	%r14
	.cfi_def_cfa_offset 16
	popq	%r15
	.cfi_def_cfa_offset 8
	jmp	_ZdaPv@PLT
	.p2align 4,,10
	.p2align 3
.L397:
	.cfi_restore_state
	movq	8(%r13), %rdi
	movq	%rbp, %rcx
	movq	%r15, %rdx
	movl	%r12d, %esi
	call	MPI_Cart_get@PLT
	jmp	.L388
.L389:
	xorl	%eax, %eax
	jmp	.L387
.L379:
	call	__cxa_throw_bad_array_new_length@PLT
	.cfi_endproc
.LFE3961:
	.size	_ZNK3MPI8Cartcomm8Get_topoEiPiPbS1_, .-_ZNK3MPI8Cartcomm8Get_topoEiPiPbS1_
	.section	.text._ZN3MPI8Grequest8CompleteEv,"axG",@progbits,_ZN3MPI8Grequest8CompleteEv,comdat
	.align 2
	.p2align 4
	.weak	_ZN3MPI8Grequest8CompleteEv
	.type	_ZN3MPI8Grequest8CompleteEv, @function
_ZN3MPI8Grequest8CompleteEv:
.LFB3871:
	.cfi_startproc
	endbr64
	movq	8(%rdi), %rdi
	jmp	MPI_Grequest_complete@PLT
	.cfi_endproc
.LFE3871:
	.size	_ZN3MPI8Grequest8CompleteEv, .-_ZN3MPI8Grequest8CompleteEv
	.section	.text._ZNK3MPI7Request10Get_statusEv,"axG",@progbits,_ZNK3MPI7Request10Get_statusEv,comdat
	.align 2
	.p2align 4
	.weak	_ZNK3MPI7Request10Get_statusEv
	.type	_ZNK3MPI7Request10Get_statusEv, @function
_ZNK3MPI7Request10Get_statusEv:
.LFB3869:
	.cfi_startproc
	endbr64
	subq	$24, %rsp
	.cfi_def_cfa_offset 32
	movq	8(%rdi), %rdi
	xorl	%edx, %edx
	movq	%fs:40, %rax
	movq	%rax, 8(%rsp)
	xorl	%eax, %eax
	leaq	4(%rsp), %rsi
	call	MPI_Request_get_status@PLT
	movl	4(%rsp), %eax
	testl	%eax, %eax
	setne	%al
	movq	8(%rsp), %rdx
	subq	%fs:40, %rdx
	jne	.L402
	addq	$24, %rsp
	.cfi_remember_state
	.cfi_def_cfa_offset 8
	ret
.L402:
	.cfi_restore_state
	call	__stack_chk_fail@PLT
	.cfi_endproc
.LFE3869:
	.size	_ZNK3MPI7Request10Get_statusEv, .-_ZNK3MPI7Request10Get_statusEv
	.section	.text._ZNK3MPI7Request10Get_statusERNS_6StatusE,"axG",@progbits,_ZNK3MPI7Request10Get_statusERNS_6StatusE,comdat
	.align 2
	.p2align 4
	.weak	_ZNK3MPI7Request10Get_statusERNS_6StatusE
	.type	_ZNK3MPI7Request10Get_statusERNS_6StatusE, @function
_ZNK3MPI7Request10Get_statusERNS_6StatusE:
.LFB3868:
	.cfi_startproc
	endbr64
	pushq	%rbx
	.cfi_def_cfa_offset 16
	.cfi_offset 3, -16
	movq	%rsi, %rbx
	subq	$48, %rsp
	.cfi_def_cfa_offset 64
	movq	8(%rdi), %rdi
	movq	%fs:40, %rax
	movq	%rax, 40(%rsp)
	xorl	%eax, %eax
	leaq	16(%rsp), %rdx
	leaq	12(%rsp), %rsi
	movl	$0, 12(%rsp)
	call	MPI_Request_get_status@PLT
	movl	12(%rsp), %eax
	testl	%eax, %eax
	je	.L404
	movq	32(%rsp), %rdx
	movdqa	16(%rsp), %xmm0
	movq	%rdx, 24(%rbx)
	movups	%xmm0, 8(%rbx)
.L404:
	testl	%eax, %eax
	setne	%al
	movq	40(%rsp), %rdx
	subq	%fs:40, %rdx
	jne	.L410
	addq	$48, %rsp
	.cfi_remember_state
	.cfi_def_cfa_offset 16
	popq	%rbx
	.cfi_def_cfa_offset 8
	ret
.L410:
	.cfi_restore_state
	call	__stack_chk_fail@PLT
	.cfi_endproc
.LFE3868:
	.size	_ZNK3MPI7Request10Get_statusERNS_6StatusE, .-_ZNK3MPI7Request10Get_statusERNS_6StatusE
	.section	.text._ZNK3MPI7Request6CancelEv,"axG",@progbits,_ZNK3MPI7Request6CancelEv,comdat
	.align 2
	.p2align 4
	.weak	_ZNK3MPI7Request6CancelEv
	.type	_ZNK3MPI7Request6CancelEv, @function
_ZNK3MPI7Request6CancelEv:
.LFB3865:
	.cfi_startproc
	endbr64
	addq	$8, %rdi
	jmp	MPI_Cancel@PLT
	.cfi_endproc
.LFE3865:
	.size	_ZNK3MPI7Request6CancelEv, .-_ZNK3MPI7Request6CancelEv
	.section	.text._ZN3MPI7Request4FreeEv,"axG",@progbits,_ZN3MPI7Request4FreeEv,comdat
	.align 2
	.p2align 4
	.weak	_ZN3MPI7Request4FreeEv
	.type	_ZN3MPI7Request4FreeEv, @function
_ZN3MPI7Request4FreeEv:
.LFB3850:
	.cfi_startproc
	endbr64
	addq	$8, %rdi
	jmp	MPI_Request_free@PLT
	.cfi_endproc
.LFE3850:
	.size	_ZN3MPI7Request4FreeEv, .-_ZN3MPI7Request4FreeEv
	.section	.text._ZN3MPI7Request4TestEv,"axG",@progbits,_ZN3MPI7Request4TestEv,comdat
	.align 2
	.p2align 4
	.weak	_ZN3MPI7Request4TestEv
	.type	_ZN3MPI7Request4TestEv, @function
_ZN3MPI7Request4TestEv:
.LFB3852:
	.cfi_startproc
	endbr64
	subq	$24, %rsp
	.cfi_def_cfa_offset 32
	addq	$8, %rdi
	xorl	%edx, %edx
	movq	%fs:40, %rax
	movq	%rax, 8(%rsp)
	xorl	%eax, %eax
	leaq	4(%rsp), %rsi
	call	MPI_Test@PLT
	movl	4(%rsp), %eax
	testl	%eax, %eax
	setne	%al
	movq	8(%rsp), %rdx
	subq	%fs:40, %rdx
	jne	.L416
	addq	$24, %rsp
	.cfi_remember_state
	.cfi_def_cfa_offset 8
	ret
.L416:
	.cfi_restore_state
	call	__stack_chk_fail@PLT
	.cfi_endproc
.LFE3852:
	.size	_ZN3MPI7Request4TestEv, .-_ZN3MPI7Request4TestEv
	.section	.text._ZN3MPI7Request4TestERNS_6StatusE,"axG",@progbits,_ZN3MPI7Request4TestERNS_6StatusE,comdat
	.align 2
	.p2align 4
	.weak	_ZN3MPI7Request4TestERNS_6StatusE
	.type	_ZN3MPI7Request4TestERNS_6StatusE, @function
_ZN3MPI7Request4TestERNS_6StatusE:
.LFB3851:
	.cfi_startproc
	endbr64
	subq	$24, %rsp
	.cfi_def_cfa_offset 32
	leaq	8(%rsi), %rdx
	addq	$8, %rdi
	movq	%fs:40, %rax
	movq	%rax, 8(%rsp)
	xorl	%eax, %eax
	leaq	4(%rsp), %rsi
	call	MPI_Test@PLT
	movl	4(%rsp), %eax
	testl	%eax, %eax
	setne	%al
	movq	8(%rsp), %rdx
	subq	%fs:40, %rdx
	jne	.L420
	addq	$24, %rsp
	.cfi_remember_state
	.cfi_def_cfa_offset 8
	ret
.L420:
	.cfi_restore_state
	call	__stack_chk_fail@PLT
	.cfi_endproc
.LFE3851:
	.size	_ZN3MPI7Request4TestERNS_6StatusE, .-_ZN3MPI7Request4TestERNS_6StatusE
	.section	.text._ZN3MPI7Request4WaitEv,"axG",@progbits,_ZN3MPI7Request4WaitEv,comdat
	.align 2
	.p2align 4
	.weak	_ZN3MPI7Request4WaitEv
	.type	_ZN3MPI7Request4WaitEv, @function
_ZN3MPI7Request4WaitEv:
.LFB3849:
	.cfi_startproc
	endbr64
	addq	$8, %rdi
	xorl	%esi, %esi
	jmp	MPI_Wait@PLT
	.cfi_endproc
.LFE3849:
	.size	_ZN3MPI7Request4WaitEv, .-_ZN3MPI7Request4WaitEv
	.section	.text._ZN3MPI7Request4WaitERNS_6StatusE,"axG",@progbits,_ZN3MPI7Request4WaitERNS_6StatusE,comdat
	.align 2
	.p2align 4
	.weak	_ZN3MPI7Request4WaitERNS_6StatusE
	.type	_ZN3MPI7Request4WaitERNS_6StatusE, @function
_ZN3MPI7Request4WaitERNS_6StatusE:
.LFB3848:
	.cfi_startproc
	endbr64
	addq	$8, %rsi
	addq	$8, %rdi
	jmp	MPI_Wait@PLT
	.cfi_endproc
.LFE3848:
	.size	_ZN3MPI7Request4WaitERNS_6StatusE, .-_ZN3MPI7Request4WaitERNS_6StatusE
	.section	.text._ZN3MPI8Prequest5StartEv,"axG",@progbits,_ZN3MPI8Prequest5StartEv,comdat
	.align 2
	.p2align 4
	.weak	_ZN3MPI8Prequest5StartEv
	.type	_ZN3MPI8Prequest5StartEv, @function
_ZN3MPI8Prequest5StartEv:
.LFB3866:
	.cfi_startproc
	endbr64
	addq	$8, %rdi
	jmp	MPI_Start@PLT
	.cfi_endproc
.LFE3866:
	.size	_ZN3MPI8Prequest5StartEv, .-_ZN3MPI8Prequest5StartEv
	.section	.text._ZN3MPI8Datatype8Set_nameEPKc,"axG",@progbits,_ZN3MPI8Datatype8Set_nameEPKc,comdat
	.align 2
	.p2align 4
	.weak	_ZN3MPI8Datatype8Set_nameEPKc
	.type	_ZN3MPI8Datatype8Set_nameEPKc, @function
_ZN3MPI8Datatype8Set_nameEPKc:
.LFB3789:
	.cfi_startproc
	endbr64
	movq	8(%rdi), %rdi
	jmp	MPI_Type_set_name@PLT
	.cfi_endproc
.LFE3789:
	.size	_ZN3MPI8Datatype8Set_nameEPKc, .-_ZN3MPI8Datatype8Set_nameEPKc
	.section	.text._ZN3MPI8Datatype8Set_attrEiPKv,"axG",@progbits,_ZN3MPI8Datatype8Set_attrEiPKv,comdat
	.align 2
	.p2align 4
	.weak	_ZN3MPI8Datatype8Set_attrEiPKv
	.type	_ZN3MPI8Datatype8Set_attrEiPKv, @function
_ZN3MPI8Datatype8Set_attrEiPKv:
.LFB3788:
	.cfi_startproc
	endbr64
	movq	8(%rdi), %rdi
	jmp	MPI_Type_set_attr@PLT
	.cfi_endproc
.LFE3788:
	.size	_ZN3MPI8Datatype8Set_attrEiPKv, .-_ZN3MPI8Datatype8Set_attrEiPKv
	.section	.text._ZNK3MPI8Datatype8Get_nameEPcRi,"axG",@progbits,_ZNK3MPI8Datatype8Get_nameEPcRi,comdat
	.align 2
	.p2align 4
	.weak	_ZNK3MPI8Datatype8Get_nameEPcRi
	.type	_ZNK3MPI8Datatype8Get_nameEPcRi, @function
_ZNK3MPI8Datatype8Get_nameEPcRi:
.LFB3787:
	.cfi_startproc
	endbr64
	movq	8(%rdi), %rdi
	jmp	MPI_Type_get_name@PLT
	.cfi_endproc
.LFE3787:
	.size	_ZNK3MPI8Datatype8Get_nameEPcRi, .-_ZNK3MPI8Datatype8Get_nameEPcRi
	.section	.text._ZNK3MPI8Datatype12Get_envelopeERiS1_S1_S1_,"axG",@progbits,_ZNK3MPI8Datatype12Get_envelopeERiS1_S1_S1_,comdat
	.align 2
	.p2align 4
	.weak	_ZNK3MPI8Datatype12Get_envelopeERiS1_S1_S1_
	.type	_ZNK3MPI8Datatype12Get_envelopeERiS1_S1_S1_, @function
_ZNK3MPI8Datatype12Get_envelopeERiS1_S1_S1_:
.LFB3786:
	.cfi_startproc
	endbr64
	movq	8(%rdi), %rdi
	jmp	MPI_Type_get_envelope@PLT
	.cfi_endproc
.LFE3786:
	.size	_ZNK3MPI8Datatype12Get_envelopeERiS1_S1_S1_, .-_ZNK3MPI8Datatype12Get_envelopeERiS1_S1_S1_
	.section	.text._ZNK3MPI8Datatype12Get_contentsEiiiPiPlPS0_,"axG",@progbits,_ZNK3MPI8Datatype12Get_contentsEiiiPiPlPS0_,comdat
	.align 2
	.p2align 4
	.weak	_ZNK3MPI8Datatype12Get_contentsEiiiPiPlPS0_
	.type	_ZNK3MPI8Datatype12Get_contentsEiiiPiPlPS0_, @function
_ZNK3MPI8Datatype12Get_contentsEiiiPiPlPS0_:
.LFB3785:
	.cfi_startproc
	endbr64
	pushq	%r15
	.cfi_def_cfa_offset 16
	.cfi_offset 15, -16
	movq	%rdi, %r15
	movslq	%ecx, %rdi
	pushq	%r14
	.cfi_def_cfa_offset 24
	.cfi_offset 14, -24
	movq	%rdi, %rax
	pushq	%r13
	.cfi_def_cfa_offset 32
	.cfi_offset 13, -32
	pushq	%r12
	.cfi_def_cfa_offset 40
	.cfi_offset 12, -40
	pushq	%rbp
	.cfi_def_cfa_offset 48
	.cfi_offset 6, -48
	pushq	%rbx
	.cfi_def_cfa_offset 56
	.cfi_offset 3, -56
	subq	$24, %rsp
	.cfi_def_cfa_offset 80
	shrq	$60, %rax
	movq	%r8, 8(%rsp)
	movq	80(%rsp), %rbx
	movq	%r9, (%rsp)
	jne	.L429
	movq	%rdi, %r12
	salq	$3, %rdi
	movl	%esi, %r13d
	movl	%edx, %r14d
	call	_Znam@PLT
	subq	$8, %rsp
	.cfi_def_cfa_offset 88
	movq	8(%r15), %rdi
	movl	%r14d, %edx
	pushq	%rax
	.cfi_def_cfa_offset 96
	movq	16(%rsp), %r9
	movl	%r12d, %ecx
	movl	%r13d, %esi
	movq	24(%rsp), %r8
	movq	%rax, %rbp
	call	MPI_Type_get_contents@PLT
	popq	%rax
	.cfi_def_cfa_offset 88
	popq	%rdx
	.cfi_def_cfa_offset 80
	testl	%r12d, %r12d
	jle	.L431
	cmpl	$1, %r12d
	je	.L435
	movl	%r12d, %edx
	xorl	%eax, %eax
	shrl	%edx
	salq	$4, %rdx
	.p2align 4,,10
	.p2align 3
.L433:
	movdqu	0(%rbp,%rax), %xmm0
	movq	%xmm0, 8(%rbx,%rax,2)
	movhps	%xmm0, 24(%rbx,%rax,2)
	addq	$16, %rax
	cmpq	%rax, %rdx
	jne	.L433
	movl	%r12d, %eax
	andl	$-2, %eax
	andl	$1, %r12d
	je	.L431
.L432:
	cltq
	movq	%rax, %rdx
	movq	0(%rbp,%rax,8), %rax
	salq	$4, %rdx
	movq	%rax, 8(%rbx,%rdx)
.L431:
	addq	$24, %rsp
	.cfi_remember_state
	.cfi_def_cfa_offset 56
	movq	%rbp, %rdi
	popq	%rbx
	.cfi_def_cfa_offset 48
	popq	%rbp
	.cfi_def_cfa_offset 40
	popq	%r12
	.cfi_def_cfa_offset 32
	popq	%r13
	.cfi_def_cfa_offset 24
	popq	%r14
	.cfi_def_cfa_offset 16
	popq	%r15
	.cfi_def_cfa_offset 8
	jmp	_ZdaPv@PLT
.L435:
	.cfi_restore_state
	xorl	%eax, %eax
	jmp	.L432
.L429:
	call	__cxa_throw_bad_array_new_length@PLT
	.cfi_endproc
.LFE3785:
	.size	_ZNK3MPI8Datatype12Get_contentsEiiiPiPlPS0_, .-_ZNK3MPI8Datatype12Get_contentsEiiiPiPlPS0_
	.section	.text._ZNK3MPI8Datatype8Get_attrEiPv,"axG",@progbits,_ZNK3MPI8Datatype8Get_attrEiPv,comdat
	.align 2
	.p2align 4
	.weak	_ZNK3MPI8Datatype8Get_attrEiPv
	.type	_ZNK3MPI8Datatype8Get_attrEiPv, @function
_ZNK3MPI8Datatype8Get_attrEiPv:
.LFB3784:
	.cfi_startproc
	endbr64
	subq	$24, %rsp
	.cfi_def_cfa_offset 32
	movq	8(%rdi), %rdi
	movq	%fs:40, %rax
	movq	%rax, 8(%rsp)
	xorl	%eax, %eax
	leaq	4(%rsp), %rcx
	call	MPI_Type_get_attr@PLT
	movl	4(%rsp), %eax
	testl	%eax, %eax
	setne	%al
	movq	8(%rsp), %rdx
	subq	%fs:40, %rdx
	jne	.L441
	addq	$24, %rsp
	.cfi_remember_state
	.cfi_def_cfa_offset 8
	ret
.L441:
	.cfi_restore_state
	call	__stack_chk_fail@PLT
	.cfi_endproc
.LFE3784:
	.size	_ZNK3MPI8Datatype8Get_attrEiPv, .-_ZNK3MPI8Datatype8Get_attrEiPv
	.section	.text._ZN3MPI8Datatype11Delete_attrEi,"axG",@progbits,_ZN3MPI8Datatype11Delete_attrEi,comdat
	.align 2
	.p2align 4
	.weak	_ZN3MPI8Datatype11Delete_attrEi
	.type	_ZN3MPI8Datatype11Delete_attrEi, @function
_ZN3MPI8Datatype11Delete_attrEi:
.LFB3782:
	.cfi_startproc
	endbr64
	movq	8(%rdi), %rdi
	jmp	MPI_Type_delete_attr@PLT
	.cfi_endproc
.LFE3782:
	.size	_ZN3MPI8Datatype11Delete_attrEi, .-_ZN3MPI8Datatype11Delete_attrEi
	.section	.text._ZNK3MPI8Datatype3DupEv,"axG",@progbits,_ZNK3MPI8Datatype3DupEv,comdat
	.align 2
	.p2align 4
	.weak	_ZNK3MPI8Datatype3DupEv
	.type	_ZNK3MPI8Datatype3DupEv, @function
_ZNK3MPI8Datatype3DupEv:
.LFB3777:
	.cfi_startproc
	endbr64
	pushq	%r12
	.cfi_def_cfa_offset 16
	.cfi_offset 12, -16
	movq	%rsi, %r8
	movq	%rdi, %r12
	subq	$16, %rsp
	.cfi_def_cfa_offset 32
	movq	8(%r8), %rdi
	movq	%fs:40, %rax
	movq	%rax, 8(%rsp)
	xorl	%eax, %eax
	movq	%rsp, %rsi
	call	MPI_Type_dup@PLT
	leaq	16+_ZTVN3MPI8DatatypeE(%rip), %rax
	movq	%rax, (%r12)
	movq	(%rsp), %rax
	movq	%rax, 8(%r12)
	movq	8(%rsp), %rax
	subq	%fs:40, %rax
	jne	.L446
	addq	$16, %rsp
	.cfi_remember_state
	.cfi_def_cfa_offset 16
	movq	%r12, %rax
	popq	%r12
	.cfi_def_cfa_offset 8
	ret
.L446:
	.cfi_restore_state
	call	__stack_chk_fail@PLT
	.cfi_endproc
.LFE3777:
	.size	_ZNK3MPI8Datatype3DupEv, .-_ZNK3MPI8Datatype3DupEv
	.section	.text._ZNK3MPI8Datatype13Create_darrayEiiiPKiS2_S2_S2_i,"axG",@progbits,_ZNK3MPI8Datatype13Create_darrayEiiiPKiS2_S2_S2_i,comdat
	.align 2
	.p2align 4
	.weak	_ZNK3MPI8Datatype13Create_darrayEiiiPKiS2_S2_S2_i
	.type	_ZNK3MPI8Datatype13Create_darrayEiiiPKiS2_S2_S2_i, @function
_ZNK3MPI8Datatype13Create_darrayEiiiPKiS2_S2_S2_i:
.LFB3772:
	.cfi_startproc
	endbr64
	pushq	%r12
	.cfi_def_cfa_offset 16
	.cfi_offset 12, -16
	movq	%rsi, %r10
	movq	%rdi, %r12
	movl	%ecx, %esi
	movl	%edx, %edi
	movq	%r9, %rcx
	movl	%r8d, %edx
	subq	$16, %rsp
	.cfi_def_cfa_offset 32
	movq	%fs:40, %rax
	movq	%rax, 8(%rsp)
	movq	%rsp, %rax
	pushq	%rax
	.cfi_def_cfa_offset 40
	pushq	8(%r10)
	.cfi_def_cfa_offset 48
	movl	72(%rsp), %eax
	pushq	%rax
	.cfi_def_cfa_offset 56
	pushq	72(%rsp)
	.cfi_def_cfa_offset 64
	movq	72(%rsp), %r9
	movq	64(%rsp), %r8
	call	MPI_Type_create_darray@PLT
	leaq	16+_ZTVN3MPI8DatatypeE(%rip), %rax
	movq	%rax, (%r12)
	movq	32(%rsp), %rax
	addq	$32, %rsp
	.cfi_def_cfa_offset 32
	movq	%rax, 8(%r12)
	movq	8(%rsp), %rax
	subq	%fs:40, %rax
	jne	.L450
	addq	$16, %rsp
	.cfi_remember_state
	.cfi_def_cfa_offset 16
	movq	%r12, %rax
	popq	%r12
	.cfi_def_cfa_offset 8
	ret
.L450:
	.cfi_restore_state
	call	__stack_chk_fail@PLT
	.cfi_endproc
.LFE3772:
	.size	_ZNK3MPI8Datatype13Create_darrayEiiiPKiS2_S2_S2_i, .-_ZNK3MPI8Datatype13Create_darrayEiiiPKiS2_S2_S2_i
	.section	.text._ZNK3MPI8Datatype15Create_subarrayEiPKiS2_S2_i,"axG",@progbits,_ZNK3MPI8Datatype15Create_subarrayEiPKiS2_S2_i,comdat
	.align 2
	.p2align 4
	.weak	_ZNK3MPI8Datatype15Create_subarrayEiPKiS2_S2_i
	.type	_ZNK3MPI8Datatype15Create_subarrayEiPKiS2_S2_i, @function
_ZNK3MPI8Datatype15Create_subarrayEiPKiS2_S2_i:
.LFB3771:
	.cfi_startproc
	endbr64
	pushq	%r12
	.cfi_def_cfa_offset 16
	.cfi_offset 12, -16
	movq	%rsi, %r10
	movq	%rcx, %rsi
	movq	%r9, %rcx
	movq	%rdi, %r12
	movl	%edx, %edi
	movq	%r8, %rdx
	subq	$24, %rsp
	.cfi_def_cfa_offset 40
	movq	8(%r10), %r9
	movq	%fs:40, %rax
	movq	%rax, 16(%rsp)
	xorl	%eax, %eax
	leaq	8(%rsp), %rax
	pushq	%rax
	.cfi_def_cfa_offset 48
	movl	48(%rsp), %r8d
	call	MPI_Type_create_subarray@PLT
	leaq	16+_ZTVN3MPI8DatatypeE(%rip), %rax
	movq	%rax, (%r12)
	movq	16(%rsp), %rax
	movq	%rax, 8(%r12)
	popq	%rax
	.cfi_def_cfa_offset 40
	popq	%rdx
	.cfi_def_cfa_offset 32
	movq	8(%rsp), %rax
	subq	%fs:40, %rax
	jne	.L454
	addq	$16, %rsp
	.cfi_remember_state
	.cfi_def_cfa_offset 16
	movq	%r12, %rax
	popq	%r12
	.cfi_def_cfa_offset 8
	ret
.L454:
	.cfi_restore_state
	call	__stack_chk_fail@PLT
	.cfi_endproc
.LFE3771:
	.size	_ZNK3MPI8Datatype15Create_subarrayEiPKiS2_S2_i, .-_ZNK3MPI8Datatype15Create_subarrayEiPKiS2_S2_i
	.section	.text._ZNK3MPI8Datatype15Unpack_externalEPKcPKvlRlPvi,"axG",@progbits,_ZNK3MPI8Datatype15Unpack_externalEPKcPKvlRlPvi,comdat
	.align 2
	.p2align 4
	.weak	_ZNK3MPI8Datatype15Unpack_externalEPKcPKvlRlPvi
	.type	_ZNK3MPI8Datatype15Unpack_externalEPKcPKvlRlPvi, @function
_ZNK3MPI8Datatype15Unpack_externalEPKcPKvlRlPvi:
.LFB3770:
	.cfi_startproc
	endbr64
	movq	%rdi, %r10
	movq	%rsi, %rdi
	movq	%rdx, %rsi
	movq	%rcx, %rdx
	movq	8(%r10), %rax
	movq	%r8, %rcx
	movq	%r9, %r8
	movl	8(%rsp), %r9d
	movq	%rax, 8(%rsp)
	jmp	MPI_Unpack_external@PLT
	.cfi_endproc
.LFE3770:
	.size	_ZNK3MPI8Datatype15Unpack_externalEPKcPKvlRlPvi, .-_ZNK3MPI8Datatype15Unpack_externalEPKcPKvlRlPvi
	.section	.text._ZNK3MPI8Datatype18Pack_external_sizeEPKci,"axG",@progbits,_ZNK3MPI8Datatype18Pack_external_sizeEPKci,comdat
	.align 2
	.p2align 4
	.weak	_ZNK3MPI8Datatype18Pack_external_sizeEPKci
	.type	_ZNK3MPI8Datatype18Pack_external_sizeEPKci, @function
_ZNK3MPI8Datatype18Pack_external_sizeEPKci:
.LFB3769:
	.cfi_startproc
	endbr64
	movq	%rdi, %r8
	subq	$24, %rsp
	.cfi_def_cfa_offset 32
	movq	%rsi, %rdi
	movl	%edx, %esi
	movq	%fs:40, %rax
	movq	%rax, 8(%rsp)
	xorl	%eax, %eax
	movq	8(%r8), %rdx
	movq	%rsp, %rcx
	call	MPI_Pack_external_size@PLT
	movq	(%rsp), %rax
	movq	8(%rsp), %rdx
	subq	%fs:40, %rdx
	jne	.L459
	addq	$24, %rsp
	.cfi_remember_state
	.cfi_def_cfa_offset 8
	ret
.L459:
	.cfi_restore_state
	call	__stack_chk_fail@PLT
	.cfi_endproc
.LFE3769:
	.size	_ZNK3MPI8Datatype18Pack_external_sizeEPKci, .-_ZNK3MPI8Datatype18Pack_external_sizeEPKci
	.section	.text._ZNK3MPI8Datatype13Pack_externalEPKcPKviPvlRl,"axG",@progbits,_ZNK3MPI8Datatype13Pack_externalEPKcPKviPvlRl,comdat
	.align 2
	.p2align 4
	.weak	_ZNK3MPI8Datatype13Pack_externalEPKcPKviPvlRl
	.type	_ZNK3MPI8Datatype13Pack_externalEPKcPKviPvlRl, @function
_ZNK3MPI8Datatype13Pack_externalEPKcPKviPvlRl:
.LFB3768:
	.cfi_startproc
	endbr64
	movq	%rdi, %r10
	movq	%rsi, %rdi
	movq	%rdx, %rsi
	movl	%ecx, %edx
	movq	8(%r10), %rcx
	jmp	MPI_Pack_external@PLT
	.cfi_endproc
.LFE3768:
	.size	_ZNK3MPI8Datatype13Pack_externalEPKcPKviPvlRl, .-_ZNK3MPI8Datatype13Pack_externalEPKcPKviPvlRl
	.section	.text._ZNK3MPI8Datatype9Pack_sizeEiRKNS_4CommE,"axG",@progbits,_ZNK3MPI8Datatype9Pack_sizeEiRKNS_4CommE,comdat
	.align 2
	.p2align 4
	.weak	_ZNK3MPI8Datatype9Pack_sizeEiRKNS_4CommE
	.type	_ZNK3MPI8Datatype9Pack_sizeEiRKNS_4CommE, @function
_ZNK3MPI8Datatype9Pack_sizeEiRKNS_4CommE:
.LFB3767:
	.cfi_startproc
	endbr64
	movq	%rdi, %r8
	subq	$24, %rsp
	.cfi_def_cfa_offset 32
	movl	%esi, %edi
	movq	8(%rdx), %rdx
	movq	%fs:40, %rax
	movq	%rax, 8(%rsp)
	xorl	%eax, %eax
	movq	8(%r8), %rsi
	leaq	4(%rsp), %rcx
	call	MPI_Pack_size@PLT
	movl	4(%rsp), %eax
	movq	8(%rsp), %rdx
	subq	%fs:40, %rdx
	jne	.L464
	addq	$24, %rsp
	.cfi_remember_state
	.cfi_def_cfa_offset 8
	ret
.L464:
	.cfi_restore_state
	call	__stack_chk_fail@PLT
	.cfi_endproc
.LFE3767:
	.size	_ZNK3MPI8Datatype9Pack_sizeEiRKNS_4CommE, .-_ZNK3MPI8Datatype9Pack_sizeEiRKNS_4CommE
	.section	.text._ZNK3MPI8Datatype6UnpackEPKviPviRiRKNS_4CommE,"axG",@progbits,_ZNK3MPI8Datatype6UnpackEPKviPviRiRKNS_4CommE,comdat
	.align 2
	.p2align 4
	.weak	_ZNK3MPI8Datatype6UnpackEPKviPviRiRKNS_4CommE
	.type	_ZNK3MPI8Datatype6UnpackEPKviPviRiRKNS_4CommE, @function
_ZNK3MPI8Datatype6UnpackEPKviPviRiRKNS_4CommE:
.LFB3766:
	.cfi_startproc
	endbr64
	movq	8(%rsp), %rax
	movq	%rdi, %r10
	movq	%rsi, %rdi
	movl	%edx, %esi
	movq	%r9, %rdx
	movq	8(%r10), %r9
	movq	8(%rax), %rax
	movq	%rax, 8(%rsp)
	jmp	MPI_Unpack@PLT
	.cfi_endproc
.LFE3766:
	.size	_ZNK3MPI8Datatype6UnpackEPKviPviRiRKNS_4CommE, .-_ZNK3MPI8Datatype6UnpackEPKviPviRiRKNS_4CommE
	.section	.text._ZNK3MPI8Datatype4PackEPKviPviRiRKNS_4CommE,"axG",@progbits,_ZNK3MPI8Datatype4PackEPKviPviRiRKNS_4CommE,comdat
	.align 2
	.p2align 4
	.weak	_ZNK3MPI8Datatype4PackEPKviPviRiRKNS_4CommE
	.type	_ZNK3MPI8Datatype4PackEPKviPviRiRKNS_4CommE, @function
_ZNK3MPI8Datatype4PackEPKviPviRiRKNS_4CommE:
.LFB3765:
	.cfi_startproc
	endbr64
	movq	8(%rsp), %rax
	movq	%rdi, %r10
	movq	%rsi, %rdi
	movl	%edx, %esi
	movq	8(%r10), %rdx
	movq	8(%rax), %rax
	movq	%rax, 8(%rsp)
	jmp	MPI_Pack@PLT
	.cfi_endproc
.LFE3765:
	.size	_ZNK3MPI8Datatype4PackEPKviPviRiRKNS_4CommE, .-_ZNK3MPI8Datatype4PackEPKviPviRiRKNS_4CommE
	.section	.text._ZN3MPI8Datatype6CommitEv,"axG",@progbits,_ZN3MPI8Datatype6CommitEv,comdat
	.align 2
	.p2align 4
	.weak	_ZN3MPI8Datatype6CommitEv
	.type	_ZN3MPI8Datatype6CommitEv, @function
_ZN3MPI8Datatype6CommitEv:
.LFB3764:
	.cfi_startproc
	endbr64
	addq	$8, %rdi
	jmp	MPI_Type_commit@PLT
	.cfi_endproc
.LFE3764:
	.size	_ZN3MPI8Datatype6CommitEv, .-_ZN3MPI8Datatype6CommitEv
	.section	.text._ZNK3MPI8Datatype15Get_true_extentERlS1_,"axG",@progbits,_ZNK3MPI8Datatype15Get_true_extentERlS1_,comdat
	.align 2
	.p2align 4
	.weak	_ZNK3MPI8Datatype15Get_true_extentERlS1_
	.type	_ZNK3MPI8Datatype15Get_true_extentERlS1_, @function
_ZNK3MPI8Datatype15Get_true_extentERlS1_:
.LFB3763:
	.cfi_startproc
	endbr64
	movq	8(%rdi), %rdi
	jmp	MPI_Type_get_true_extent@PLT
	.cfi_endproc
.LFE3763:
	.size	_ZNK3MPI8Datatype15Get_true_extentERlS1_, .-_ZNK3MPI8Datatype15Get_true_extentERlS1_
	.section	.text._ZNK3MPI8Datatype10Get_extentERlS1_,"axG",@progbits,_ZNK3MPI8Datatype10Get_extentERlS1_,comdat
	.align 2
	.p2align 4
	.weak	_ZNK3MPI8Datatype10Get_extentERlS1_
	.type	_ZNK3MPI8Datatype10Get_extentERlS1_, @function
_ZNK3MPI8Datatype10Get_extentERlS1_:
.LFB3762:
	.cfi_startproc
	endbr64
	movq	8(%rdi), %rdi
	jmp	MPI_Type_get_extent@PLT
	.cfi_endproc
.LFE3762:
	.size	_ZNK3MPI8Datatype10Get_extentERlS1_, .-_ZNK3MPI8Datatype10Get_extentERlS1_
	.section	.text._ZNK3MPI8Datatype8Get_sizeEv,"axG",@progbits,_ZNK3MPI8Datatype8Get_sizeEv,comdat
	.align 2
	.p2align 4
	.weak	_ZNK3MPI8Datatype8Get_sizeEv
	.type	_ZNK3MPI8Datatype8Get_sizeEv, @function
_ZNK3MPI8Datatype8Get_sizeEv:
.LFB3761:
	.cfi_startproc
	endbr64
	subq	$24, %rsp
	.cfi_def_cfa_offset 32
	movq	8(%rdi), %rdi
	movq	%fs:40, %rax
	movq	%rax, 8(%rsp)
	xorl	%eax, %eax
	leaq	4(%rsp), %rsi
	call	MPI_Type_size@PLT
	movl	4(%rsp), %eax
	movq	8(%rsp), %rdx
	subq	%fs:40, %rdx
	jne	.L473
	addq	$24, %rsp
	.cfi_remember_state
	.cfi_def_cfa_offset 8
	ret
.L473:
	.cfi_restore_state
	call	__stack_chk_fail@PLT
	.cfi_endproc
.LFE3761:
	.size	_ZNK3MPI8Datatype8Get_sizeEv, .-_ZNK3MPI8Datatype8Get_sizeEv
	.section	.text._ZNK3MPI8Datatype14Create_resizedEll,"axG",@progbits,_ZNK3MPI8Datatype14Create_resizedEll,comdat
	.align 2
	.p2align 4
	.weak	_ZNK3MPI8Datatype14Create_resizedEll
	.type	_ZNK3MPI8Datatype14Create_resizedEll, @function
_ZNK3MPI8Datatype14Create_resizedEll:
.LFB3760:
	.cfi_startproc
	endbr64
	pushq	%r12
	.cfi_def_cfa_offset 16
	.cfi_offset 12, -16
	movq	%rsi, %r8
	movq	%rdi, %r12
	movq	%rdx, %rsi
	movq	%rcx, %rdx
	subq	$16, %rsp
	.cfi_def_cfa_offset 32
	movq	8(%r8), %rdi
	movq	%fs:40, %rax
	movq	%rax, 8(%rsp)
	xorl	%eax, %eax
	movq	%rsp, %rcx
	call	MPI_Type_create_resized@PLT
	leaq	16+_ZTVN3MPI8DatatypeE(%rip), %rax
	movq	%rax, (%r12)
	movq	(%rsp), %rax
	movq	%rax, 8(%r12)
	movq	8(%rsp), %rax
	subq	%fs:40, %rax
	jne	.L477
	addq	$16, %rsp
	.cfi_remember_state
	.cfi_def_cfa_offset 16
	movq	%r12, %rax
	popq	%r12
	.cfi_def_cfa_offset 8
	ret
.L477:
	.cfi_restore_state
	call	__stack_chk_fail@PLT
	.cfi_endproc
.LFE3760:
	.size	_ZNK3MPI8Datatype14Create_resizedEll, .-_ZNK3MPI8Datatype14Create_resizedEll
	.section	.text._ZNK3MPI8Datatype20Create_indexed_blockEiiPKi,"axG",@progbits,_ZNK3MPI8Datatype20Create_indexed_blockEiiPKi,comdat
	.align 2
	.p2align 4
	.weak	_ZNK3MPI8Datatype20Create_indexed_blockEiiPKi
	.type	_ZNK3MPI8Datatype20Create_indexed_blockEiiPKi, @function
_ZNK3MPI8Datatype20Create_indexed_blockEiiPKi:
.LFB3759:
	.cfi_startproc
	endbr64
	pushq	%r12
	.cfi_def_cfa_offset 16
	.cfi_offset 12, -16
	movq	%rsi, %r9
	movl	%ecx, %esi
	movq	%rdi, %r12
	movl	%edx, %edi
	movq	%r8, %rdx
	subq	$16, %rsp
	.cfi_def_cfa_offset 32
	movq	8(%r9), %rcx
	movq	%fs:40, %rax
	movq	%rax, 8(%rsp)
	xorl	%eax, %eax
	movq	%rsp, %r8
	call	MPI_Type_create_indexed_block@PLT
	leaq	16+_ZTVN3MPI8DatatypeE(%rip), %rax
	movq	%rax, (%r12)
	movq	(%rsp), %rax
	movq	%rax, 8(%r12)
	movq	8(%rsp), %rax
	subq	%fs:40, %rax
	jne	.L481
	addq	$16, %rsp
	.cfi_remember_state
	.cfi_def_cfa_offset 16
	movq	%r12, %rax
	popq	%r12
	.cfi_def_cfa_offset 8
	ret
.L481:
	.cfi_restore_state
	call	__stack_chk_fail@PLT
	.cfi_endproc
.LFE3759:
	.size	_ZNK3MPI8Datatype20Create_indexed_blockEiiPKi, .-_ZNK3MPI8Datatype20Create_indexed_blockEiiPKi
	.section	.text._ZNK3MPI8Datatype14Create_hvectorEiil,"axG",@progbits,_ZNK3MPI8Datatype14Create_hvectorEiil,comdat
	.align 2
	.p2align 4
	.weak	_ZNK3MPI8Datatype14Create_hvectorEiil
	.type	_ZNK3MPI8Datatype14Create_hvectorEiil, @function
_ZNK3MPI8Datatype14Create_hvectorEiil:
.LFB3758:
	.cfi_startproc
	endbr64
	pushq	%r12
	.cfi_def_cfa_offset 16
	.cfi_offset 12, -16
	movq	%rsi, %r9
	movl	%ecx, %esi
	movq	%rdi, %r12
	movl	%edx, %edi
	movq	%r8, %rdx
	subq	$16, %rsp
	.cfi_def_cfa_offset 32
	movq	8(%r9), %rcx
	movq	%fs:40, %rax
	movq	%rax, 8(%rsp)
	xorl	%eax, %eax
	movq	%rsp, %r8
	call	MPI_Type_create_hvector@PLT
	leaq	16+_ZTVN3MPI8DatatypeE(%rip), %rax
	movq	%rax, (%r12)
	movq	(%rsp), %rax
	movq	%rax, 8(%r12)
	movq	8(%rsp), %rax
	subq	%fs:40, %rax
	jne	.L485
	addq	$16, %rsp
	.cfi_remember_state
	.cfi_def_cfa_offset 16
	movq	%r12, %rax
	popq	%r12
	.cfi_def_cfa_offset 8
	ret
.L485:
	.cfi_restore_state
	call	__stack_chk_fail@PLT
	.cfi_endproc
.LFE3758:
	.size	_ZNK3MPI8Datatype14Create_hvectorEiil, .-_ZNK3MPI8Datatype14Create_hvectorEiil
	.section	.text._ZNK3MPI8Datatype15Create_hindexedEiPKiPKl,"axG",@progbits,_ZNK3MPI8Datatype15Create_hindexedEiPKiPKl,comdat
	.align 2
	.p2align 4
	.weak	_ZNK3MPI8Datatype15Create_hindexedEiPKiPKl
	.type	_ZNK3MPI8Datatype15Create_hindexedEiPKiPKl, @function
_ZNK3MPI8Datatype15Create_hindexedEiPKiPKl:
.LFB3757:
	.cfi_startproc
	endbr64
	pushq	%r12
	.cfi_def_cfa_offset 16
	.cfi_offset 12, -16
	movq	%rsi, %r9
	movq	%rcx, %rsi
	movq	%rdi, %r12
	movl	%edx, %edi
	movq	%r8, %rdx
	subq	$16, %rsp
	.cfi_def_cfa_offset 32
	movq	8(%r9), %rcx
	movq	%fs:40, %rax
	movq	%rax, 8(%rsp)
	xorl	%eax, %eax
	movq	%rsp, %r8
	call	MPI_Type_create_hindexed@PLT
	leaq	16+_ZTVN3MPI8DatatypeE(%rip), %rax
	movq	%rax, (%r12)
	movq	(%rsp), %rax
	movq	%rax, 8(%r12)
	movq	8(%rsp), %rax
	subq	%fs:40, %rax
	jne	.L489
	addq	$16, %rsp
	.cfi_remember_state
	.cfi_def_cfa_offset 16
	movq	%r12, %rax
	popq	%r12
	.cfi_def_cfa_offset 8
	ret
.L489:
	.cfi_restore_state
	call	__stack_chk_fail@PLT
	.cfi_endproc
.LFE3757:
	.size	_ZNK3MPI8Datatype15Create_hindexedEiPKiPKl, .-_ZNK3MPI8Datatype15Create_hindexedEiPKiPKl
	.section	.text._ZNK3MPI8Datatype14Create_indexedEiPKiS2_,"axG",@progbits,_ZNK3MPI8Datatype14Create_indexedEiPKiS2_,comdat
	.align 2
	.p2align 4
	.weak	_ZNK3MPI8Datatype14Create_indexedEiPKiS2_
	.type	_ZNK3MPI8Datatype14Create_indexedEiPKiS2_, @function
_ZNK3MPI8Datatype14Create_indexedEiPKiS2_:
.LFB3755:
	.cfi_startproc
	endbr64
	pushq	%r12
	.cfi_def_cfa_offset 16
	.cfi_offset 12, -16
	movq	%rsi, %r9
	movq	%rcx, %rsi
	movq	%rdi, %r12
	movl	%edx, %edi
	movq	%r8, %rdx
	subq	$16, %rsp
	.cfi_def_cfa_offset 32
	movq	8(%r9), %rcx
	movq	%fs:40, %rax
	movq	%rax, 8(%rsp)
	xorl	%eax, %eax
	movq	%rsp, %r8
	call	MPI_Type_indexed@PLT
	leaq	16+_ZTVN3MPI8DatatypeE(%rip), %rax
	movq	%rax, (%r12)
	movq	(%rsp), %rax
	movq	%rax, 8(%r12)
	movq	8(%rsp), %rax
	subq	%fs:40, %rax
	jne	.L493
	addq	$16, %rsp
	.cfi_remember_state
	.cfi_def_cfa_offset 16
	movq	%r12, %rax
	popq	%r12
	.cfi_def_cfa_offset 8
	ret
.L493:
	.cfi_restore_state
	call	__stack_chk_fail@PLT
	.cfi_endproc
.LFE3755:
	.size	_ZNK3MPI8Datatype14Create_indexedEiPKiS2_, .-_ZNK3MPI8Datatype14Create_indexedEiPKiS2_
	.section	.text._ZNK3MPI8Datatype13Create_vectorEiii,"axG",@progbits,_ZNK3MPI8Datatype13Create_vectorEiii,comdat
	.align 2
	.p2align 4
	.weak	_ZNK3MPI8Datatype13Create_vectorEiii
	.type	_ZNK3MPI8Datatype13Create_vectorEiii, @function
_ZNK3MPI8Datatype13Create_vectorEiii:
.LFB3754:
	.cfi_startproc
	endbr64
	pushq	%r12
	.cfi_def_cfa_offset 16
	.cfi_offset 12, -16
	movq	%rsi, %r9
	movl	%ecx, %esi
	movq	%rdi, %r12
	movl	%edx, %edi
	movl	%r8d, %edx
	subq	$16, %rsp
	.cfi_def_cfa_offset 32
	movq	8(%r9), %rcx
	movq	%fs:40, %rax
	movq	%rax, 8(%rsp)
	xorl	%eax, %eax
	movq	%rsp, %r8
	call	MPI_Type_vector@PLT
	leaq	16+_ZTVN3MPI8DatatypeE(%rip), %rax
	movq	%rax, (%r12)
	movq	(%rsp), %rax
	movq	%rax, 8(%r12)
	movq	8(%rsp), %rax
	subq	%fs:40, %rax
	jne	.L497
	addq	$16, %rsp
	.cfi_remember_state
	.cfi_def_cfa_offset 16
	movq	%r12, %rax
	popq	%r12
	.cfi_def_cfa_offset 8
	ret
.L497:
	.cfi_restore_state
	call	__stack_chk_fail@PLT
	.cfi_endproc
.LFE3754:
	.size	_ZNK3MPI8Datatype13Create_vectorEiii, .-_ZNK3MPI8Datatype13Create_vectorEiii
	.section	.text._ZNK3MPI8Datatype17Create_contiguousEi,"axG",@progbits,_ZNK3MPI8Datatype17Create_contiguousEi,comdat
	.align 2
	.p2align 4
	.weak	_ZNK3MPI8Datatype17Create_contiguousEi
	.type	_ZNK3MPI8Datatype17Create_contiguousEi, @function
_ZNK3MPI8Datatype17Create_contiguousEi:
.LFB3753:
	.cfi_startproc
	endbr64
	pushq	%r12
	.cfi_def_cfa_offset 16
	.cfi_offset 12, -16
	movq	%rdi, %r12
	movl	%edx, %edi
	subq	$16, %rsp
	.cfi_def_cfa_offset 32
	movq	8(%rsi), %rsi
	movq	%fs:40, %rax
	movq	%rax, 8(%rsp)
	xorl	%eax, %eax
	movq	%rsp, %rdx
	call	MPI_Type_contiguous@PLT
	leaq	16+_ZTVN3MPI8DatatypeE(%rip), %rax
	movq	%rax, (%r12)
	movq	(%rsp), %rax
	movq	%rax, 8(%r12)
	movq	8(%rsp), %rax
	subq	%fs:40, %rax
	jne	.L501
	addq	$16, %rsp
	.cfi_remember_state
	.cfi_def_cfa_offset 16
	movq	%r12, %rax
	popq	%r12
	.cfi_def_cfa_offset 8
	ret
.L501:
	.cfi_restore_state
	call	__stack_chk_fail@PLT
	.cfi_endproc
.LFE3753:
	.size	_ZNK3MPI8Datatype17Create_contiguousEi, .-_ZNK3MPI8Datatype17Create_contiguousEi
	.section	.rodata.str1.8,"aMS",@progbits,1
	.align 8
.LC2:
	.string	"basic_string::_M_construct null not valid"
	.text
	.align 2
	.p2align 4
	.type	_ZNSt7__cxx1112basic_stringIcSt11char_traitsIcESaIcEEC2IS3_EEPKcRKS3_.constprop.0, @function
_ZNSt7__cxx1112basic_stringIcSt11char_traitsIcESaIcEEC2IS3_EEPKcRKS3_.constprop.0:
.LFB5314:
	.cfi_startproc
	pushq	%r13
	.cfi_def_cfa_offset 16
	.cfi_offset 13, -16
	leaq	16(%rdi), %r13
	pushq	%r12
	.cfi_def_cfa_offset 24
	.cfi_offset 12, -24
	pushq	%rbp
	.cfi_def_cfa_offset 32
	.cfi_offset 6, -32
	pushq	%rbx
	.cfi_def_cfa_offset 40
	.cfi_offset 3, -40
	subq	$24, %rsp
	.cfi_def_cfa_offset 64
	movq	%fs:40, %rax
	movq	%rax, 8(%rsp)
	xorl	%eax, %eax
	movq	%r13, (%rdi)
	testq	%rsi, %rsi
	je	.L503
	movq	%rdi, %rbx
	movq	%rsi, %rdi
	movq	%rsi, %rbp
	call	strlen@PLT
	movq	%rax, (%rsp)
	movq	%rax, %r12
	cmpq	$15, %rax
	ja	.L515
	cmpq	$1, %rax
	jne	.L507
	movzbl	0(%rbp), %eax
	movb	%al, 16(%rbx)
.L508:
	movq	(%rsp), %rax
	movq	(%rbx), %rdx
	movq	%rax, 8(%rbx)
	movb	$0, (%rdx,%rax)
	movq	8(%rsp), %rax
	subq	%fs:40, %rax
	jne	.L516
	addq	$24, %rsp
	.cfi_remember_state
	.cfi_def_cfa_offset 40
	popq	%rbx
	.cfi_def_cfa_offset 32
	popq	%rbp
	.cfi_def_cfa_offset 24
	popq	%r12
	.cfi_def_cfa_offset 16
	popq	%r13
	.cfi_def_cfa_offset 8
	ret
.L507:
	.cfi_restore_state
	testq	%rax, %rax
	je	.L508
	jmp	.L506
.L515:
	movq	%rsp, %rsi
	xorl	%edx, %edx
	movq	%rbx, %rdi
	call	_ZNSt7__cxx1112basic_stringIcSt11char_traitsIcESaIcEE9_M_createERmm@PLT
	movq	%rax, (%rbx)
	movq	%rax, %r13
	movq	(%rsp), %rax
	movq	%rax, 16(%rbx)
.L506:
	movq	%r12, %rdx
	movq	%rbp, %rsi
	movq	%r13, %rdi
	call	memcpy@PLT
	jmp	.L508
.L516:
	call	__stack_chk_fail@PLT
.L503:
	leaq	.LC2(%rip), %rdi
	call	_ZSt19__throw_logic_errorPKc@PLT
	.cfi_endproc
.LFE5314:
	.size	_ZNSt7__cxx1112basic_stringIcSt11char_traitsIcESaIcEEC2IS3_EEPKcRKS3_.constprop.0, .-_ZNSt7__cxx1112basic_stringIcSt11char_traitsIcESaIcEEC2IS3_EEPKcRKS3_.constprop.0
	.p2align 4
	.type	_ZSt4endlIcSt11char_traitsIcEERSt13basic_ostreamIT_T0_ES6_.isra.0, @function
_ZSt4endlIcSt11char_traitsIcEERSt13basic_ostreamIT_T0_ES6_.isra.0:
.LFB5316:
	.cfi_startproc
	pushq	%r12
	.cfi_def_cfa_offset 16
	.cfi_offset 12, -16
	pushq	%rbp
	.cfi_def_cfa_offset 24
	.cfi_offset 6, -24
	subq	$8, %rsp
	.cfi_def_cfa_offset 32
	movq	(%rdi), %rax
	movq	-24(%rax), %rax
	movq	240(%rdi,%rax), %r12
	testq	%r12, %r12
	je	.L523
	cmpb	$0, 56(%r12)
	movq	%rdi, %rbp
	je	.L519
	movsbl	67(%r12), %esi
.L520:
	movq	%rbp, %rdi
	call	_ZNSo3putEc@PLT
	addq	$8, %rsp
	.cfi_remember_state
	.cfi_def_cfa_offset 24
	popq	%rbp
	.cfi_def_cfa_offset 16
	movq	%rax, %rdi
	popq	%r12
	.cfi_def_cfa_offset 8
	jmp	_ZNSo5flushEv@PLT
.L519:
	.cfi_restore_state
	movq	%r12, %rdi
	call	_ZNKSt5ctypeIcE13_M_widen_initEv@PLT
	movq	(%r12), %rax
	movl	$10, %esi
	leaq	_ZNKSt5ctypeIcE8do_widenEc(%rip), %rdx
	movq	48(%rax), %rax
	cmpq	%rdx, %rax
	je	.L520
	movl	$10, %esi
	movq	%r12, %rdi
	call	*%rax
	movsbl	%al, %esi
	jmp	.L520
.L523:
	call	_ZSt16__throw_bad_castv@PLT
	.cfi_endproc
.LFE5316:
	.size	_ZSt4endlIcSt11char_traitsIcEERSt13basic_ostreamIT_T0_ES6_.isra.0, .-_ZSt4endlIcSt11char_traitsIcEERSt13basic_ostreamIT_T0_ES6_.isra.0
	.section	.text._ZNK3MPI4Comm9AlltoallwEPKvPKiS4_PKNS_8DatatypeEPvS4_S4_S7_,"axG",@progbits,_ZNK3MPI4Comm9AlltoallwEPKvPKiS4_PKNS_8DatatypeEPvS4_S4_S7_,comdat
	.align 2
	.p2align 4
	.weak	_ZNK3MPI4Comm9AlltoallwEPKvPKiS4_PKNS_8DatatypeEPvS4_S4_S7_
	.type	_ZNK3MPI4Comm9AlltoallwEPKvPKiS4_PKNS_8DatatypeEPvS4_S4_S7_, @function
_ZNK3MPI4Comm9AlltoallwEPKvPKiS4_PKNS_8DatatypeEPvS4_S4_S7_:
.LFB3912:
	.cfi_startproc
	endbr64
	pushq	%r15
	.cfi_def_cfa_offset 16
	.cfi_offset 15, -16
	pushq	%r14
	.cfi_def_cfa_offset 24
	.cfi_offset 14, -24
	pushq	%r13
	.cfi_def_cfa_offset 32
	.cfi_offset 13, -32
	movq	%rcx, %r13
	leaq	_ZNK3MPI4Comm8Get_sizeEv(%rip), %rcx
	pushq	%r12
	.cfi_def_cfa_offset 40
	.cfi_offset 12, -40
	pushq	%rbp
	.cfi_def_cfa_offset 48
	.cfi_offset 6, -48
	movq	%r8, %rbp
	pushq	%rbx
	.cfi_def_cfa_offset 56
	.cfi_offset 3, -56
	movq	%rdi, %rbx
	subq	$72, %rsp
	.cfi_def_cfa_offset 128
	movq	136(%rsp), %rax
	movq	%rsi, 8(%rsp)
	movq	%rdx, 16(%rsp)
	movq	128(%rsp), %r14
	movq	%r9, 24(%rsp)
	movq	144(%rsp), %r12
	movq	%rax, 32(%rsp)
	movq	%fs:40, %rax
	movq	%rax, 56(%rsp)
	movq	(%rdi), %rax
	movq	216(%rax), %rax
	cmpq	%rcx, %rax
	jne	.L525
	movq	8(%rdi), %rdi
	leaq	52(%rsp), %rsi
	call	MPI_Comm_size@PLT
	movl	52(%rsp), %ecx
.L526:
	leal	(%rcx,%rcx), %edi
	movl	%ecx, 44(%rsp)
	movslq	%edi, %rdi
	movq	%rdi, %rax
	shrq	$60, %rax
	jne	.L527
	salq	$3, %rdi
	call	_Znam@PLT
	movl	44(%rsp), %ecx
	movq	%rax, %r15
	movslq	%ecx, %r9
	testl	%ecx, %ecx
	jle	.L529
	movslq	%ecx, %r9
	leal	-1(%rcx), %r11d
	leaq	0(,%r9,8), %rsi
	cmpq	$8, %rsi
	je	.L530
	cmpl	$1, %r11d
	jbe	.L530
	movl	%r11d, %edi
	addq	%rax, %rsi
	xorl	%eax, %eax
	shrl	%edi
	salq	$4, %rdi
	.p2align 4,,10
	.p2align 3
.L531:
	movdqu	8(%rbp,%rax,2), %xmm0
	movdqu	24(%rbp,%rax,2), %xmm1
	movdqu	24(%r12,%rax,2), %xmm2
	punpcklqdq	%xmm1, %xmm0
	movups	%xmm0, (%r15,%rax)
	movdqu	8(%r12,%rax,2), %xmm0
	punpcklqdq	%xmm2, %xmm0
	movups	%xmm0, (%rsi,%rax)
	addq	$16, %rax
	cmpq	%rax, %rdi
	jne	.L531
	andl	$-2, %r11d
	movl	%r11d, %esi
	movq	%rsi, %rax
	leaq	0(,%rsi,8), %rdi
	salq	$4, %rax
	movq	8(%rbp,%rax), %rdx
	movq	%rdx, (%r15,%rsi,8)
	leal	(%rcx,%r11), %esi
	movq	8(%r12,%rax), %rdx
	addl	$1, %r11d
	movslq	%esi, %rsi
	movq	%rdx, (%r15,%rsi,8)
	cmpl	%r11d, %ecx
	jle	.L529
	movq	24(%rbp,%rax), %rsi
	addq	$16, %rax
	addl	%ecx, %r11d
	movq	8(%r12,%rax), %rax
	movslq	%r11d, %r11
	movq	%rsi, 8(%r15,%rdi)
	movq	%rax, (%r15,%r11,8)
.L529:
	subq	$8, %rsp
	.cfi_def_cfa_offset 136
	leaq	(%r15,%r9,8), %rax
	pushq	8(%rbx)
	.cfi_def_cfa_offset 144
	movq	%r14, %r9
	pushq	%rax
	.cfi_def_cfa_offset 152
	movq	%r15, %rcx
	movq	%r13, %rdx
	pushq	56(%rsp)
	.cfi_def_cfa_offset 160
	movq	56(%rsp), %r8
	movq	48(%rsp), %rsi
	movq	40(%rsp), %rdi
	call	MPI_Alltoallw@PLT
	addq	$32, %rsp
	.cfi_def_cfa_offset 128
	movq	56(%rsp), %rax
	subq	%fs:40, %rax
	jne	.L545
	addq	$72, %rsp
	.cfi_remember_state
	.cfi_def_cfa_offset 56
	movq	%r15, %rdi
	popq	%rbx
	.cfi_def_cfa_offset 48
	popq	%rbp
	.cfi_def_cfa_offset 40
	popq	%r12
	.cfi_def_cfa_offset 32
	popq	%r13
	.cfi_def_cfa_offset 24
	popq	%r14
	.cfi_def_cfa_offset 16
	popq	%r15
	.cfi_def_cfa_offset 8
	jmp	_ZdaPv@PLT
	.p2align 4,,10
	.p2align 3
.L525:
	.cfi_restore_state
	call	*%rax
	movl	%eax, %ecx
	jmp	.L526
	.p2align 4,,10
	.p2align 3
.L530:
	movl	%ecx, %ecx
	addq	%r15, %rsi
	xorl	%eax, %eax
	salq	$3, %rcx
	.p2align 4,,10
	.p2align 3
.L533:
	movq	8(%rbp,%rax,2), %rdx
	movq	%rdx, (%r15,%rax)
	movq	8(%r12,%rax,2), %rdx
	movq	%rdx, (%rsi,%rax)
	addq	$8, %rax
	cmpq	%rax, %rcx
	jne	.L533
	jmp	.L529
.L545:
	call	__stack_chk_fail@PLT
.L527:
	call	__cxa_throw_bad_array_new_length@PLT
	.cfi_endproc
.LFE3912:
	.size	_ZNK3MPI4Comm9AlltoallwEPKvPKiS4_PKNS_8DatatypeEPvS4_S4_S7_, .-_ZNK3MPI4Comm9AlltoallwEPKvPKiS4_PKNS_8DatatypeEPvS4_S4_S7_
	.text
	.p2align 4
	.type	main._omp_fn.0, @function
main._omp_fn.0:
.LFB5305:
	.cfi_startproc
	endbr64
	pushq	%r15
	.cfi_def_cfa_offset 16
	.cfi_offset 15, -16
	movl	$1, %ecx
	pushq	%r14
	.cfi_def_cfa_offset 24
	.cfi_offset 14, -24
	pushq	%r13
	.cfi_def_cfa_offset 32
	.cfi_offset 13, -32
	pushq	%r12
	.cfi_def_cfa_offset 40
	.cfi_offset 12, -40
	pushq	%rbp
	.cfi_def_cfa_offset 48
	.cfi_offset 6, -48
	pushq	%rbx
	.cfi_def_cfa_offset 56
	.cfi_offset 3, -56
	subq	$136, %rsp
	.cfi_def_cfa_offset 192
	movss	44(%rdi), %xmm5
	movss	40(%rdi), %xmm6
	movq	%rdi, 72(%rsp)
	movss	28(%rdi), %xmm7
	leaq	112(%rsp), %r9
	leaq	104(%rsp), %r8
	movl	36(%rdi), %ebx
	movslq	48(%rdi), %rsi
	movq	%fs:40, %rax
	movq	%rax, 120(%rsp)
	xorl	%eax, %eax
	movl	32(%rdi), %eax
	movss	%xmm5, 52(%rsp)
	movss	24(%rdi), %xmm5
	movq	%r9, 80(%rsp)
	movl	%eax, 60(%rsp)
	movq	8(%rdi), %rax
	movq	%r8, 88(%rsp)
	movslq	(%rax), %rdx
	movq	(%rdi), %rax
	movss	%xmm6, 56(%rsp)
	movss	%xmm7, 64(%rsp)
	movslq	(%rax), %rdi
	movss	%xmm5, 68(%rsp)
	movq	%rdx, %r15
	call	GOMP_loop_nonmonotonic_dynamic_start@PLT
	testb	%al, %al
	jne	.L547
.L555:
	call	GOMP_loop_end_nowait@PLT
	movq	120(%rsp), %rax
	subq	%fs:40, %rax
	jne	.L564
	addq	$136, %rsp
	.cfi_remember_state
	.cfi_def_cfa_offset 56
	popq	%rbx
	.cfi_def_cfa_offset 48
	popq	%rbp
	.cfi_def_cfa_offset 40
	popq	%r12
	.cfi_def_cfa_offset 32
	popq	%r13
	.cfi_def_cfa_offset 24
	popq	%r14
	.cfi_def_cfa_offset 16
	popq	%r15
	.cfi_def_cfa_offset 8
	ret
.L565:
	.cfi_restore_state
	movapd	%xmm2, %xmm0
	movapd	%xmm1, %xmm3
	addl	$1, %r14d
	call	__muldc3@PLT
	movsd	32(%rsp), %xmm2
	addsd	24(%rsp), %xmm1
	addsd	%xmm0, %xmm2
	movsd	%xmm1, 8(%rsp)
	movapd	%xmm2, %xmm0
	movsd	%xmm2, 16(%rsp)
	call	cabs@PLT
	movsd	.LC4(%rip), %xmm6
	movsd	8(%rsp), %xmm1
	movsd	16(%rsp), %xmm2
	comisd	%xmm0, %xmm6
	ja	.L553
	.p2align 4,,10
	.p2align 3
.L551:
	movzwl	%r14w, %eax
	cmpl	%eax, %ebx
	movl	$0, %eax
	cmovle	%eax, %r14d
.L548:
	movl	%ebp, %eax
	addl	%r15d, %ebp
	subl	%r13d, %eax
	cltd
	idivl	48(%rsp)
	cltq
	movw	%r14w, (%r12,%rax,2)
	cmpl	%ebp, 44(%rsp)
	jg	.L554
	movq	80(%rsp), %rsi
	movq	88(%rsp), %rdi
	call	GOMP_loop_nonmonotonic_dynamic_next@PLT
	testb	%al, %al
	je	.L555
.L547:
	movq	72(%rsp), %rdi
	movl	112(%rsp), %eax
	movl	104(%rsp), %ebp
	movl	%eax, 44(%rsp)
	movq	(%rdi), %rax
	movl	(%rax), %r13d
	movq	8(%rdi), %rax
	movl	(%rax), %eax
	movl	%eax, 48(%rsp)
	movq	16(%rdi), %rax
	movq	(%rax), %r12
	.p2align 4,,10
	.p2align 3
.L554:
	movl	%ebp, %eax
	pxor	%xmm0, %xmm0
	pxor	%xmm7, %xmm7
	xorl	%r14d, %r14d
	cltd
	pxor	%xmm1, %xmm1
	idivl	60(%rsp)
	movapd	%xmm1, %xmm2
	cvtsi2ssl	%eax, %xmm0
	mulss	52(%rsp), %xmm0
	addss	64(%rsp), %xmm0
	cvtss2sd	%xmm0, %xmm7
	pxor	%xmm0, %xmm0
	movsd	%xmm7, 24(%rsp)
	pxor	%xmm7, %xmm7
	cvtsi2ssl	%edx, %xmm0
	mulss	56(%rsp), %xmm0
	addss	68(%rsp), %xmm0
	cvtss2sd	%xmm0, %xmm7
	movsd	%xmm7, 32(%rsp)
.L553:
	movzwl	%r14w, %eax
	cmpl	%eax, %ebx
	jle	.L557
	.p2align 4,,10
	.p2align 3
.L566:
	movapd	%xmm1, %xmm3
	movapd	%xmm2, %xmm0
	movapd	%xmm2, %xmm4
	mulsd	%xmm1, %xmm3
	mulsd	%xmm2, %xmm0
	mulsd	%xmm1, %xmm4
	subsd	%xmm3, %xmm0
	addsd	%xmm4, %xmm4
	ucomisd	%xmm0, %xmm4
	jp	.L565
	movsd	32(%rsp), %xmm2
	addsd	24(%rsp), %xmm4
	addl	$1, %r14d
	addsd	%xmm0, %xmm2
	movapd	%xmm4, %xmm1
	movsd	%xmm4, 8(%rsp)
	movapd	%xmm2, %xmm0
	movsd	%xmm2, 16(%rsp)
	call	cabs@PLT
	movsd	.LC4(%rip), %xmm7
	movsd	8(%rsp), %xmm1
	movsd	16(%rsp), %xmm2
	comisd	%xmm0, %xmm7
	jbe	.L551
	movzwl	%r14w, %eax
	cmpl	%eax, %ebx
	jg	.L566
.L557:
	xorl	%r14d, %r14d
	jmp	.L548
.L564:
	call	__stack_chk_fail@PLT
	.cfi_endproc
.LFE5305:
	.size	main._omp_fn.0, .-main._omp_fn.0
	.section	.text._ZN3MPI9Intracomm14Spawn_multipleEiPPKcPS3_PKiPKNS_4InfoEi,"axG",@progbits,_ZN3MPI9Intracomm14Spawn_multipleEiPPKcPS3_PKiPKNS_4InfoEi,comdat
	.align 2
	.p2align 4
	.weak	_ZN3MPI9Intracomm14Spawn_multipleEiPPKcPS3_PKiPKNS_4InfoEi
	.type	_ZN3MPI9Intracomm14Spawn_multipleEiPPKcPS3_PKiPKNS_4InfoEi, @function
_ZN3MPI9Intracomm14Spawn_multipleEiPPKcPS3_PKiPKNS_4InfoEi:
.LFB3953:
	.cfi_startproc
	endbr64
	pushq	%r15
	.cfi_def_cfa_offset 16
	.cfi_offset 15, -16
	pushq	%r14
	.cfi_def_cfa_offset 24
	.cfi_offset 14, -24
	movq	%rcx, %r14
	pushq	%r13
	.cfi_def_cfa_offset 32
	.cfi_offset 13, -32
	movq	%rdi, %r13
	movslq	%edx, %rdi
	pushq	%r12
	.cfi_def_cfa_offset 40
	.cfi_offset 12, -40
	pushq	%rbp
	.cfi_def_cfa_offset 48
	.cfi_offset 6, -48
	pushq	%rbx
	.cfi_def_cfa_offset 56
	.cfi_offset 3, -56
	subq	$40, %rsp
	.cfi_def_cfa_offset 96
	movq	%r8, 8(%rsp)
	movq	96(%rsp), %rbx
	movq	%r9, (%rsp)
	movq	%fs:40, %rax
	movq	%rax, 24(%rsp)
	movq	%rdi, %rax
	shrq	$60, %rax
	jne	.L568
	movq	%rdi, %r12
	salq	$3, %rdi
	movq	%rsi, %r15
	call	_Znam@PLT
	testl	%r12d, %r12d
	movq	(%rsp), %rcx
	movq	8(%rsp), %r10
	movq	%rax, %rbp
	jle	.L570
	leal	-1(%r12), %esi
	cmpl	$1, %esi
	jbe	.L574
	movl	%esi, %edx
	xorl	%eax, %eax
	shrl	%edx
	salq	$4, %rdx
	.p2align 4,,10
	.p2align 3
.L572:
	movdqu	8(%rbx,%rax,2), %xmm0
	movdqu	24(%rbx,%rax,2), %xmm1
	punpcklqdq	%xmm1, %xmm0
	movups	%xmm0, 0(%rbp,%rax)
	addq	$16, %rax
	cmpq	%rax, %rdx
	jne	.L572
	andl	$-2, %esi
.L571:
	movslq	%esi, %rax
	addl	$1, %esi
	movq	%rax, %rdx
	leaq	0(,%rax,8), %r8
	salq	$4, %rdx
	movq	8(%rbx,%rdx), %rdi
	movq	%rdi, 0(%rbp,%rax,8)
	cmpl	%esi, %r12d
	jle	.L570
	movq	24(%rbx,%rdx), %rax
	movq	%rax, 8(%rbp,%r8)
.L570:
	subq	$8, %rsp
	.cfi_def_cfa_offset 104
	movq	%rbp, %r8
	movq	%r10, %rdx
	movq	%r14, %rsi
	pushq	$0
	.cfi_def_cfa_offset 112
	movl	%r12d, %edi
	leaq	32(%rsp), %rax
	pushq	%rax
	.cfi_def_cfa_offset 120
	pushq	8(%r15)
	.cfi_def_cfa_offset 128
	movl	136(%rsp), %r9d
	call	MPI_Comm_spawn_multiple@PLT
	addq	$32, %rsp
	.cfi_def_cfa_offset 96
	movq	%rbp, %rdi
	call	_ZdaPv@PLT
	movq	16(%rsp), %rax
	movq	%rax, 8(%r13)
	leaq	16+_ZTVN3MPI9IntercommE(%rip), %rax
	movq	%rax, 0(%r13)
	movq	24(%rsp), %rax
	subq	%fs:40, %rax
	jne	.L577
	addq	$40, %rsp
	.cfi_remember_state
	.cfi_def_cfa_offset 56
	movq	%r13, %rax
	popq	%rbx
	.cfi_def_cfa_offset 48
	popq	%rbp
	.cfi_def_cfa_offset 40
	popq	%r12
	.cfi_def_cfa_offset 32
	popq	%r13
	.cfi_def_cfa_offset 24
	popq	%r14
	.cfi_def_cfa_offset 16
	popq	%r15
	.cfi_def_cfa_offset 8
	ret
.L574:
	.cfi_restore_state
	xorl	%esi, %esi
	jmp	.L571
.L577:
	call	__stack_chk_fail@PLT
.L568:
	call	__cxa_throw_bad_array_new_length@PLT
	.cfi_endproc
.LFE3953:
	.size	_ZN3MPI9Intracomm14Spawn_multipleEiPPKcPS3_PKiPKNS_4InfoEi, .-_ZN3MPI9Intracomm14Spawn_multipleEiPPKcPS3_PKiPKNS_4InfoEi
	.section	.text._ZNK3MPI9Intracomm12Create_graphEiPKiS2_b,"axG",@progbits,_ZNK3MPI9Intracomm12Create_graphEiPKiS2_b,comdat
	.align 2
	.p2align 4
	.weak	_ZNK3MPI9Intracomm12Create_graphEiPKiS2_b
	.type	_ZNK3MPI9Intracomm12Create_graphEiPKiS2_b, @function
_ZNK3MPI9Intracomm12Create_graphEiPKiS2_b:
.LFB3948:
	.cfi_startproc
	endbr64
	pushq	%r12
	.cfi_def_cfa_offset 16
	.cfi_offset 12, -16
	movq	%rsi, %r10
	movq	%rdi, %r12
	movl	%edx, %esi
	pushq	%rbx
	.cfi_def_cfa_offset 24
	.cfi_offset 3, -24
	movq	%rcx, %rdx
	movq	%r8, %rcx
	movl	%r9d, %r8d
	movzbl	%r8b, %r8d
	subq	$40, %rsp
	.cfi_def_cfa_offset 64
	movq	8(%r10), %rdi
	movq	%fs:40, %rax
	movq	%rax, 24(%rsp)
	xorl	%eax, %eax
	leaq	16(%rsp), %r9
	call	MPI_Graph_create@PLT
	movq	%r12, %rdi
	call	_ZN3MPI4CommC2Ev@PLT
	leaq	16+_ZTVN3MPI9GraphcommE(%rip), %rax
	leaq	12(%rsp), %rdi
	movl	$0, 8(%rsp)
	movq	%rax, (%r12)
	call	MPI_Initialized@PLT
	movl	12(%rsp), %eax
	movq	16(%rsp), %rdi
	testl	%eax, %eax
	je	.L582
	leaq	ompi_mpi_comm_null(%rip), %rbx
	cmpq	%rbx, %rdi
	je	.L582
	leaq	8(%rsp), %rsi
	call	MPI_Topo_test@PLT
	cmpl	$2, 8(%rsp)
	movq	%rbx, %rdi
	je	.L585
	.p2align 4,,10
	.p2align 3
.L582:
	movq	%rdi, 8(%r12)
	movq	24(%rsp), %rax
	subq	%fs:40, %rax
	jne	.L586
	addq	$40, %rsp
	.cfi_remember_state
	.cfi_def_cfa_offset 24
	movq	%r12, %rax
	popq	%rbx
	.cfi_def_cfa_offset 16
	popq	%r12
	.cfi_def_cfa_offset 8
	ret
	.p2align 4,,10
	.p2align 3
.L585:
	.cfi_restore_state
	movq	16(%rsp), %rdi
	jmp	.L582
.L586:
	call	__stack_chk_fail@PLT
	.cfi_endproc
.LFE3948:
	.size	_ZNK3MPI9Intracomm12Create_graphEiPKiS2_b, .-_ZNK3MPI9Intracomm12Create_graphEiPKiS2_b
	.section	.text._ZNK3MPI8Cartcomm5CloneEv,"axG",@progbits,_ZNK3MPI8Cartcomm5CloneEv,comdat
	.align 2
	.p2align 4
	.weak	_ZNK3MPI8Cartcomm5CloneEv
	.type	_ZNK3MPI8Cartcomm5CloneEv, @function
_ZNK3MPI8Cartcomm5CloneEv:
.LFB3967:
	.cfi_startproc
	.cfi_personality 0x9b,DW.ref.__gxx_personality_v0
	.cfi_lsda 0x1b,.LLSDA3967
	endbr64
	pushq	%r12
	.cfi_def_cfa_offset 16
	.cfi_offset 12, -16
	pushq	%rbp
	.cfi_def_cfa_offset 24
	.cfi_offset 6, -24
	subq	$40, %rsp
	.cfi_def_cfa_offset 64
	movq	8(%rdi), %rdi
	movq	%fs:40, %rax
	movq	%rax, 24(%rsp)
	xorl	%eax, %eax
	leaq	16(%rsp), %rsi
.LEHB6:
	call	MPI_Comm_dup@PLT
	movl	$16, %edi
	call	_Znwm@PLT
.LEHE6:
	movq	%rax, %rdi
	movq	%rax, %r12
.LEHB7:
	call	_ZN3MPI4CommC2Ev@PLT
	leaq	16+_ZTVN3MPI8CartcommE(%rip), %rax
	leaq	12(%rsp), %rdi
	movl	$0, 8(%rsp)
	movq	%rax, (%r12)
	call	MPI_Initialized@PLT
	movl	12(%rsp), %eax
	movq	16(%rsp), %rdi
	testl	%eax, %eax
	je	.L588
	leaq	ompi_mpi_comm_null(%rip), %rax
	cmpq	%rax, %rdi
	je	.L588
	leaq	8(%rsp), %rsi
	call	MPI_Topo_test@PLT
.LEHE7:
	cmpl	$1, 8(%rsp)
	leaq	ompi_mpi_comm_null(%rip), %rdi
	je	.L598
	.p2align 4,,10
	.p2align 3
.L588:
	movq	%rdi, 8(%r12)
	movq	24(%rsp), %rax
	subq	%fs:40, %rax
	jne	.L599
	addq	$40, %rsp
	.cfi_remember_state
	.cfi_def_cfa_offset 24
	movq	%r12, %rax
	popq	%rbp
	.cfi_def_cfa_offset 16
	popq	%r12
	.cfi_def_cfa_offset 8
	ret
	.p2align 4,,10
	.p2align 3
.L598:
	.cfi_restore_state
	movq	16(%rsp), %rdi
	jmp	.L588
.L599:
	call	__stack_chk_fail@PLT
.L592:
	endbr64
	movq	%rax, %rbp
.L589:
	movq	%r12, %rdi
	movl	$16, %esi
	call	_ZdlPvm@PLT
	movq	%rbp, %rdi
.LEHB8:
	call	_Unwind_Resume@PLT
.LEHE8:
	.cfi_endproc
.LFE3967:
	.section	.gcc_except_table._ZNK3MPI8Cartcomm5CloneEv,"aG",@progbits,_ZNK3MPI8Cartcomm5CloneEv,comdat
.LLSDA3967:
	.byte	0xff
	.byte	0xff
	.byte	0x1
	.uleb128 .LLSDACSE3967-.LLSDACSB3967
.LLSDACSB3967:
	.uleb128 .LEHB6-.LFB3967
	.uleb128 .LEHE6-.LEHB6
	.uleb128 0
	.uleb128 0
	.uleb128 .LEHB7-.LFB3967
	.uleb128 .LEHE7-.LEHB7
	.uleb128 .L592-.LFB3967
	.uleb128 0
	.uleb128 .LEHB8-.LFB3967
	.uleb128 .LEHE8-.LEHB8
	.uleb128 0
	.uleb128 0
.LLSDACSE3967:
	.section	.text._ZNK3MPI8Cartcomm5CloneEv,"axG",@progbits,_ZNK3MPI8Cartcomm5CloneEv,comdat
	.size	_ZNK3MPI8Cartcomm5CloneEv, .-_ZNK3MPI8Cartcomm5CloneEv
	.section	.text._ZNK3MPI9Intracomm11Create_cartEiPKiPKbb,"axG",@progbits,_ZNK3MPI9Intracomm11Create_cartEiPKiPKbb,comdat
	.align 2
	.p2align 4
	.weak	_ZNK3MPI9Intracomm11Create_cartEiPKiPKbb
	.type	_ZNK3MPI9Intracomm11Create_cartEiPKiPKbb, @function
_ZNK3MPI9Intracomm11Create_cartEiPKiPKbb:
.LFB3947:
	.cfi_startproc
	endbr64
	pushq	%r15
	.cfi_def_cfa_offset 16
	.cfi_offset 15, -16
	pushq	%r14
	.cfi_def_cfa_offset 24
	.cfi_offset 14, -24
	pushq	%r13
	.cfi_def_cfa_offset 32
	.cfi_offset 13, -32
	pushq	%r12
	.cfi_def_cfa_offset 40
	.cfi_offset 12, -40
	pushq	%rbp
	.cfi_def_cfa_offset 48
	.cfi_offset 6, -48
	pushq	%rbx
	.cfi_def_cfa_offset 56
	.cfi_offset 3, -56
	movslq	%edx, %rbx
	subq	$56, %rsp
	.cfi_def_cfa_offset 112
	movq	%rsi, 8(%rsp)
	movl	%r9d, 4(%rsp)
	movq	%fs:40, %rax
	movq	%rax, 40(%rsp)
	movabsq	$2305843009213693950, %rax
	cmpq	%rax, %rbx
	ja	.L601
	movq	%rdi, %r12
	movq	%rcx, %r13
	movq	%r8, %r14
	movq	%rbx, %r15
	leaq	0(,%rbx,4), %rdi
	call	_Znam@PLT
	movq	8(%rsp), %rsi
	movq	%rax, %rbp
	xorl	%eax, %eax
	testl	%ebx, %ebx
	jle	.L606
	.p2align 4,,10
	.p2align 3
.L605:
	movzbl	(%r14,%rax), %edx
	movl	%edx, 0(%rbp,%rax,4)
	addq	$1, %rax
	cmpq	%rbx, %rax
	jne	.L605
.L606:
	movzbl	4(%rsp), %r8d
	movq	8(%rsi), %rdi
	movq	%rbp, %rcx
	movq	%r13, %rdx
	leaq	32(%rsp), %r9
	movl	%r15d, %esi
	call	MPI_Cart_create@PLT
	movq	%rbp, %rdi
	call	_ZdaPv@PLT
	movq	%r12, %rdi
	call	_ZN3MPI4CommC2Ev@PLT
	leaq	16+_ZTVN3MPI8CartcommE(%rip), %rax
	leaq	28(%rsp), %rdi
	movl	$0, 24(%rsp)
	movq	%rax, (%r12)
	call	MPI_Initialized@PLT
	movl	28(%rsp), %eax
	testl	%eax, %eax
	je	.L608
	movq	32(%rsp), %rdi
	leaq	ompi_mpi_comm_null(%rip), %rbx
	cmpq	%rbx, %rdi
	je	.L609
	leaq	24(%rsp), %rsi
	call	MPI_Topo_test@PLT
	cmpl	$1, 24(%rsp)
	movq	%rbx, %rdi
	je	.L608
	.p2align 4,,10
	.p2align 3
.L609:
	movq	%rdi, 8(%r12)
	movq	40(%rsp), %rax
	subq	%fs:40, %rax
	jne	.L615
	addq	$56, %rsp
	.cfi_remember_state
	.cfi_def_cfa_offset 56
	movq	%r12, %rax
	popq	%rbx
	.cfi_def_cfa_offset 48
	popq	%rbp
	.cfi_def_cfa_offset 40
	popq	%r12
	.cfi_def_cfa_offset 32
	popq	%r13
	.cfi_def_cfa_offset 24
	popq	%r14
	.cfi_def_cfa_offset 16
	popq	%r15
	.cfi_def_cfa_offset 8
	ret
	.p2align 4,,10
	.p2align 3
.L608:
	.cfi_restore_state
	movq	32(%rsp), %rdi
	jmp	.L609
.L615:
	call	__stack_chk_fail@PLT
.L601:
	call	__cxa_throw_bad_array_new_length@PLT
	.cfi_endproc
.LFE3947:
	.size	_ZNK3MPI9Intracomm11Create_cartEiPKiPKbb, .-_ZNK3MPI9Intracomm11Create_cartEiPKiPKbb
	.section	.text._ZNK3MPI9Intercomm5MergeEb,"axG",@progbits,_ZNK3MPI9Intercomm5MergeEb,comdat
	.align 2
	.p2align 4
	.weak	_ZNK3MPI9Intercomm5MergeEb
	.type	_ZNK3MPI9Intercomm5MergeEb, @function
_ZNK3MPI9Intercomm5MergeEb:
.LFB3982:
	.cfi_startproc
	endbr64
	pushq	%r12
	.cfi_def_cfa_offset 16
	.cfi_offset 12, -16
	movq	%rsi, %r9
	movq	%rdi, %r12
	movzbl	%dl, %esi
	pushq	%rbp
	.cfi_def_cfa_offset 24
	.cfi_offset 6, -24
	pushq	%rbx
	.cfi_def_cfa_offset 32
	.cfi_offset 3, -32
	subq	$32, %rsp
	.cfi_def_cfa_offset 64
	movq	8(%r9), %rdi
	movq	%fs:40, %rax
	movq	%rax, 24(%rsp)
	xorl	%eax, %eax
	leaq	16(%rsp), %r8
	movq	%r8, %rdx
	call	MPI_Intercomm_merge@PLT
	movq	%r12, %rdi
	movq	16(%rsp), %rbx
	call	_ZN3MPI4CommC2Ev@PLT
	leaq	16+_ZTVN3MPI9IntracommE(%rip), %rax
	leaq	12(%rsp), %rdi
	movl	$0, 8(%rsp)
	movq	%rax, (%r12)
	call	MPI_Initialized@PLT
	movl	12(%rsp), %edx
	testl	%edx, %edx
	je	.L617
	leaq	ompi_mpi_comm_null(%rip), %rbp
	cmpq	%rbp, %rbx
	jne	.L626
.L617:
	movq	%rbx, 8(%r12)
	movq	24(%rsp), %rax
	subq	%fs:40, %rax
	jne	.L627
	addq	$32, %rsp
	.cfi_remember_state
	.cfi_def_cfa_offset 32
	movq	%r12, %rax
	popq	%rbx
	.cfi_def_cfa_offset 24
	popq	%rbp
	.cfi_def_cfa_offset 16
	popq	%r12
	.cfi_def_cfa_offset 8
	ret
	.p2align 4,,10
	.p2align 3
.L626:
	.cfi_restore_state
	movq	%rbx, %rdi
	leaq	8(%rsp), %rsi
	call	MPI_Comm_test_inter@PLT
	movl	8(%rsp), %eax
	testl	%eax, %eax
	cmovne	%rbp, %rbx
	jmp	.L617
.L627:
	call	__stack_chk_fail@PLT
	.cfi_endproc
.LFE3982:
	.size	_ZNK3MPI9Intercomm5MergeEb, .-_ZNK3MPI9Intercomm5MergeEb
	.section	.text._ZNK3MPI9Intracomm6CreateERKNS_5GroupE,"axG",@progbits,_ZNK3MPI9Intracomm6CreateERKNS_5GroupE,comdat
	.align 2
	.p2align 4
	.weak	_ZNK3MPI9Intracomm6CreateERKNS_5GroupE
	.type	_ZNK3MPI9Intracomm6CreateERKNS_5GroupE, @function
_ZNK3MPI9Intracomm6CreateERKNS_5GroupE:
.LFB3944:
	.cfi_startproc
	endbr64
	pushq	%r12
	.cfi_def_cfa_offset 16
	.cfi_offset 12, -16
	movq	%rsi, %r8
	movq	%rdx, %r9
	movq	%rdi, %r12
	pushq	%rbp
	.cfi_def_cfa_offset 24
	.cfi_offset 6, -24
	pushq	%rbx
	.cfi_def_cfa_offset 32
	.cfi_offset 3, -32
	subq	$32, %rsp
	.cfi_def_cfa_offset 64
	movq	8(%r8), %rdi
	movq	8(%r9), %rsi
	movq	%fs:40, %rax
	movq	%rax, 24(%rsp)
	xorl	%eax, %eax
	leaq	16(%rsp), %rdx
	call	MPI_Comm_create@PLT
	movq	%r12, %rdi
	movq	16(%rsp), %rbx
	call	_ZN3MPI4CommC2Ev@PLT
	leaq	16+_ZTVN3MPI9IntracommE(%rip), %rax
	leaq	12(%rsp), %rdi
	movl	$0, 8(%rsp)
	movq	%rax, (%r12)
	call	MPI_Initialized@PLT
	movl	12(%rsp), %edx
	testl	%edx, %edx
	je	.L629
	leaq	ompi_mpi_comm_null(%rip), %rbp
	cmpq	%rbp, %rbx
	jne	.L638
.L629:
	movq	%rbx, 8(%r12)
	movq	24(%rsp), %rax
	subq	%fs:40, %rax
	jne	.L639
	addq	$32, %rsp
	.cfi_remember_state
	.cfi_def_cfa_offset 32
	movq	%r12, %rax
	popq	%rbx
	.cfi_def_cfa_offset 24
	popq	%rbp
	.cfi_def_cfa_offset 16
	popq	%r12
	.cfi_def_cfa_offset 8
	ret
	.p2align 4,,10
	.p2align 3
.L638:
	.cfi_restore_state
	movq	%rbx, %rdi
	leaq	8(%rsp), %rsi
	call	MPI_Comm_test_inter@PLT
	movl	8(%rsp), %eax
	testl	%eax, %eax
	cmovne	%rbp, %rbx
	jmp	.L629
.L639:
	call	__stack_chk_fail@PLT
	.cfi_endproc
.LFE3944:
	.size	_ZNK3MPI9Intracomm6CreateERKNS_5GroupE, .-_ZNK3MPI9Intracomm6CreateERKNS_5GroupE
	.section	.text._ZNK3MPI9Intracomm5SplitEii,"axG",@progbits,_ZNK3MPI9Intracomm5SplitEii,comdat
	.align 2
	.p2align 4
	.weak	_ZNK3MPI9Intracomm5SplitEii
	.type	_ZNK3MPI9Intracomm5SplitEii, @function
_ZNK3MPI9Intracomm5SplitEii:
.LFB3945:
	.cfi_startproc
	endbr64
	pushq	%r12
	.cfi_def_cfa_offset 16
	.cfi_offset 12, -16
	movq	%rsi, %r8
	movq	%rdi, %r12
	movl	%edx, %esi
	pushq	%rbp
	.cfi_def_cfa_offset 24
	.cfi_offset 6, -24
	movl	%ecx, %edx
	pushq	%rbx
	.cfi_def_cfa_offset 32
	.cfi_offset 3, -32
	subq	$32, %rsp
	.cfi_def_cfa_offset 64
	movq	8(%r8), %rdi
	movq	%fs:40, %rax
	movq	%rax, 24(%rsp)
	xorl	%eax, %eax
	leaq	16(%rsp), %rcx
	call	MPI_Comm_split@PLT
	movq	%r12, %rdi
	movq	16(%rsp), %rbx
	call	_ZN3MPI4CommC2Ev@PLT
	leaq	16+_ZTVN3MPI9IntracommE(%rip), %rax
	leaq	12(%rsp), %rdi
	movl	$0, 8(%rsp)
	movq	%rax, (%r12)
	call	MPI_Initialized@PLT
	movl	12(%rsp), %edx
	testl	%edx, %edx
	je	.L641
	leaq	ompi_mpi_comm_null(%rip), %rbp
	cmpq	%rbp, %rbx
	jne	.L650
.L641:
	movq	%rbx, 8(%r12)
	movq	24(%rsp), %rax
	subq	%fs:40, %rax
	jne	.L651
	addq	$32, %rsp
	.cfi_remember_state
	.cfi_def_cfa_offset 32
	movq	%r12, %rax
	popq	%rbx
	.cfi_def_cfa_offset 24
	popq	%rbp
	.cfi_def_cfa_offset 16
	popq	%r12
	.cfi_def_cfa_offset 8
	ret
	.p2align 4,,10
	.p2align 3
.L650:
	.cfi_restore_state
	movq	%rbx, %rdi
	leaq	8(%rsp), %rsi
	call	MPI_Comm_test_inter@PLT
	movl	8(%rsp), %eax
	testl	%eax, %eax
	cmovne	%rbp, %rbx
	jmp	.L641
.L651:
	call	__stack_chk_fail@PLT
	.cfi_endproc
.LFE3945:
	.size	_ZNK3MPI9Intracomm5SplitEii, .-_ZNK3MPI9Intracomm5SplitEii
	.text
	.p2align 4
	.globl	_Z13compute_pixelffffiii
	.type	_Z13compute_pixelffffiii, @function
_Z13compute_pixelffffiii:
.LFB4494:
	.cfi_startproc
	endbr64
	movaps	%xmm0, %xmm4
	pxor	%xmm0, %xmm0
	pxor	%xmm5, %xmm5
	pushq	%r12
	.cfi_def_cfa_offset 16
	.cfi_offset 12, -16
	cvtsi2ssl	%edx, %xmm0
	pushq	%rbx
	.cfi_def_cfa_offset 24
	.cfi_offset 3, -24
	pxor	%xmm6, %xmm6
	movl	%edi, %ebx
	xorl	%r12d, %r12d
	subq	$40, %rsp
	.cfi_def_cfa_offset 64
	mulss	%xmm3, %xmm0
	addss	%xmm1, %xmm0
	cvtss2sd	%xmm0, %xmm5
	pxor	%xmm0, %xmm0
	movsd	%xmm5, 16(%rsp)
	cvtsi2ssl	%esi, %xmm0
	mulss	%xmm2, %xmm0
	pxor	%xmm2, %xmm2
	movapd	%xmm2, %xmm1
	addss	%xmm4, %xmm0
	cvtss2sd	%xmm0, %xmm6
	movsd	%xmm6, 24(%rsp)
	.p2align 4,,10
	.p2align 3
.L658:
	movzwl	%r12w, %eax
	cmpl	%ebx, %eax
	jge	.L659
	movapd	%xmm1, %xmm3
	movapd	%xmm2, %xmm0
	movapd	%xmm1, %xmm4
	mulsd	%xmm1, %xmm3
	mulsd	%xmm2, %xmm0
	mulsd	%xmm2, %xmm4
	subsd	%xmm3, %xmm0
	addsd	%xmm4, %xmm4
	ucomisd	%xmm4, %xmm0
	jp	.L663
	movsd	24(%rsp), %xmm2
	addsd	16(%rsp), %xmm4
	addsd	%xmm0, %xmm2
	movapd	%xmm4, %xmm1
.L662:
	movapd	%xmm2, %xmm0
	movsd	%xmm2, 8(%rsp)
	addl	$1, %r12d
	movsd	%xmm1, (%rsp)
	call	cabs@PLT
	movsd	(%rsp), %xmm1
	movsd	.LC4(%rip), %xmm7
	movsd	8(%rsp), %xmm2
	comisd	%xmm0, %xmm7
	ja	.L658
	movzwl	%r12w, %eax
	cmpl	%ebx, %eax
	movl	$0, %eax
	cmovge	%eax, %r12d
	addq	$40, %rsp
	.cfi_remember_state
	.cfi_def_cfa_offset 24
	popq	%rbx
	.cfi_def_cfa_offset 16
	movl	%r12d, %eax
	popq	%r12
	.cfi_def_cfa_offset 8
	ret
	.p2align 4,,10
	.p2align 3
.L659:
	.cfi_restore_state
	xorl	%r12d, %r12d
	addq	$40, %rsp
	.cfi_remember_state
	.cfi_def_cfa_offset 24
	movl	%r12d, %eax
	popq	%rbx
	.cfi_def_cfa_offset 16
	popq	%r12
	.cfi_def_cfa_offset 8
	ret
.L663:
	.cfi_restore_state
	movapd	%xmm2, %xmm0
	movapd	%xmm1, %xmm3
	call	__muldc3@PLT
	movsd	24(%rsp), %xmm2
	addsd	16(%rsp), %xmm1
	addsd	%xmm0, %xmm2
	jmp	.L662
	.cfi_endproc
.LFE4494:
	.size	_Z13compute_pixelffffiii, .-_Z13compute_pixelffffiii
	.section	.text._ZN9__gnu_cxx6__stoaIlicJiEEET0_PFT_PKT1_PPS3_DpT2_EPKcS5_PmS9_,"axG",@progbits,_ZN9__gnu_cxx6__stoaIlicJiEEET0_PFT_PKT1_PPS3_DpT2_EPKcS5_PmS9_,comdat
	.p2align 4
	.weak	_ZN9__gnu_cxx6__stoaIlicJiEEET0_PFT_PKT1_PPS3_DpT2_EPKcS5_PmS9_
	.type	_ZN9__gnu_cxx6__stoaIlicJiEEET0_PFT_PKT1_PPS3_DpT2_EPKcS5_PmS9_, @function
_ZN9__gnu_cxx6__stoaIlicJiEEET0_PFT_PKT1_PPS3_DpT2_EPKcS5_PmS9_:
.LFB4521:
	.cfi_startproc
	.cfi_personality 0x9b,DW.ref.__gxx_personality_v0
	.cfi_lsda 0x1b,.LLSDA4521
	endbr64
	pushq	%r15
	.cfi_def_cfa_offset 16
	.cfi_offset 15, -16
	movq	%rdi, %r15
	pushq	%r14
	.cfi_def_cfa_offset 24
	.cfi_offset 14, -24
	pushq	%r13
	.cfi_def_cfa_offset 32
	.cfi_offset 13, -32
	movl	%r8d, %r13d
	pushq	%r12
	.cfi_def_cfa_offset 40
	.cfi_offset 12, -40
	movq	%rcx, %r12
	pushq	%rbp
	.cfi_def_cfa_offset 48
	.cfi_offset 6, -48
	movq	%rdx, %rbp
	pushq	%rbx
	.cfi_def_cfa_offset 56
	.cfi_offset 3, -56
	subq	$40, %rsp
	.cfi_def_cfa_offset 96
	movq	%rsi, 8(%rsp)
	movq	%fs:40, %rax
	movq	%rax, 24(%rsp)
	xorl	%eax, %eax
	call	__errno_location@PLT
	leaq	16(%rsp), %rsi
	movl	%r13d, %edx
	movq	%rbp, %rdi
	movl	(%rax), %r14d
	movq	%rax, %rbx
	movl	$0, (%rax)
.LEHB9:
	call	*%r15
	movq	16(%rsp), %rcx
	cmpq	%rbp, %rcx
	je	.L681
	movl	(%rbx), %esi
	cmpl	$34, %esi
	je	.L666
	movl	$2147483648, %edx
	addq	%rax, %rdx
	shrq	$32, %rdx
	jne	.L666
	testq	%r12, %r12
	je	.L668
	subq	%rbp, %rcx
	movq	%rcx, (%r12)
.L668:
	testl	%esi, %esi
	je	.L682
.L664:
	movq	24(%rsp), %rdx
	subq	%fs:40, %rdx
	jne	.L683
	addq	$40, %rsp
	.cfi_remember_state
	.cfi_def_cfa_offset 56
	popq	%rbx
	.cfi_def_cfa_offset 48
	popq	%rbp
	.cfi_def_cfa_offset 40
	popq	%r12
	.cfi_def_cfa_offset 32
	popq	%r13
	.cfi_def_cfa_offset 24
	popq	%r14
	.cfi_def_cfa_offset 16
	popq	%r15
	.cfi_def_cfa_offset 8
	ret
	.p2align 4,,10
	.p2align 3
.L682:
	.cfi_restore_state
	movl	%r14d, (%rbx)
	jmp	.L664
.L666:
	movq	8(%rsp), %rdi
	call	_ZSt20__throw_out_of_rangePKc@PLT
.L681:
	movq	8(%rsp), %rdi
	call	_ZSt24__throw_invalid_argumentPKc@PLT
.LEHE9:
.L683:
	call	__stack_chk_fail@PLT
.L673:
	endbr64
	movq	%rax, %rdi
.L670:
	cmpl	$0, (%rbx)
	jne	.L671
	movl	%r14d, (%rbx)
.L671:
.LEHB10:
	call	_Unwind_Resume@PLT
.LEHE10:
	.cfi_endproc
.LFE4521:
	.section	.gcc_except_table._ZN9__gnu_cxx6__stoaIlicJiEEET0_PFT_PKT1_PPS3_DpT2_EPKcS5_PmS9_,"aG",@progbits,_ZN9__gnu_cxx6__stoaIlicJiEEET0_PFT_PKT1_PPS3_DpT2_EPKcS5_PmS9_,comdat
.LLSDA4521:
	.byte	0xff
	.byte	0xff
	.byte	0x1
	.uleb128 .LLSDACSE4521-.LLSDACSB4521
.LLSDACSB4521:
	.uleb128 .LEHB9-.LFB4521
	.uleb128 .LEHE9-.LEHB9
	.uleb128 .L673-.LFB4521
	.uleb128 0
	.uleb128 .LEHB10-.LFB4521
	.uleb128 .LEHE10-.LEHB10
	.uleb128 0
	.uleb128 0
.LLSDACSE4521:
	.section	.text._ZN9__gnu_cxx6__stoaIlicJiEEET0_PFT_PKT1_PPS3_DpT2_EPKcS5_PmS9_,"axG",@progbits,_ZN9__gnu_cxx6__stoaIlicJiEEET0_PFT_PKT1_PPS3_DpT2_EPKcS5_PmS9_,comdat
	.size	_ZN9__gnu_cxx6__stoaIlicJiEEET0_PFT_PKT1_PPS3_DpT2_EPKcS5_PmS9_, .-_ZN9__gnu_cxx6__stoaIlicJiEEET0_PFT_PKT1_PPS3_DpT2_EPKcS5_PmS9_
	.section	.text._ZN9__gnu_cxx6__stoaIffcJEEET0_PFT_PKT1_PPS3_DpT2_EPKcS5_PmS9_,"axG",@progbits,_ZN9__gnu_cxx6__stoaIffcJEEET0_PFT_PKT1_PPS3_DpT2_EPKcS5_PmS9_,comdat
	.p2align 4
	.weak	_ZN9__gnu_cxx6__stoaIffcJEEET0_PFT_PKT1_PPS3_DpT2_EPKcS5_PmS9_
	.type	_ZN9__gnu_cxx6__stoaIffcJEEET0_PFT_PKT1_PPS3_DpT2_EPKcS5_PmS9_, @function
_ZN9__gnu_cxx6__stoaIffcJEEET0_PFT_PKT1_PPS3_DpT2_EPKcS5_PmS9_:
.LFB4566:
	.cfi_startproc
	.cfi_personality 0x9b,DW.ref.__gxx_personality_v0
	.cfi_lsda 0x1b,.LLSDA4566
	endbr64
	pushq	%r15
	.cfi_def_cfa_offset 16
	.cfi_offset 15, -16
	movq	%rdi, %r15
	pushq	%r14
	.cfi_def_cfa_offset 24
	.cfi_offset 14, -24
	movq	%rsi, %r14
	pushq	%r13
	.cfi_def_cfa_offset 32
	.cfi_offset 13, -32
	pushq	%r12
	.cfi_def_cfa_offset 40
	.cfi_offset 12, -40
	movq	%rcx, %r12
	pushq	%rbp
	.cfi_def_cfa_offset 48
	.cfi_offset 6, -48
	movq	%rdx, %rbp
	pushq	%rbx
	.cfi_def_cfa_offset 56
	.cfi_offset 3, -56
	subq	$24, %rsp
	.cfi_def_cfa_offset 80
	movq	%fs:40, %rax
	movq	%rax, 8(%rsp)
	xorl	%eax, %eax
	call	__errno_location@PLT
	movq	%rsp, %rsi
	movq	%rbp, %rdi
	movl	(%rax), %r13d
	movq	%rax, %rbx
	movl	$0, (%rax)
.LEHB11:
	call	*%r15
	movq	(%rsp), %rax
	cmpq	%rbp, %rax
	je	.L695
	movl	(%rbx), %edx
	cmpl	$34, %edx
	je	.L686
	testq	%r12, %r12
	je	.L688
	subq	%rbp, %rax
	movq	%rax, (%r12)
.L688:
	testl	%edx, %edx
	je	.L696
.L684:
	movq	8(%rsp), %rax
	subq	%fs:40, %rax
	jne	.L697
	addq	$24, %rsp
	.cfi_remember_state
	.cfi_def_cfa_offset 56
	popq	%rbx
	.cfi_def_cfa_offset 48
	popq	%rbp
	.cfi_def_cfa_offset 40
	popq	%r12
	.cfi_def_cfa_offset 32
	popq	%r13
	.cfi_def_cfa_offset 24
	popq	%r14
	.cfi_def_cfa_offset 16
	popq	%r15
	.cfi_def_cfa_offset 8
	ret
	.p2align 4,,10
	.p2align 3
.L696:
	.cfi_restore_state
	movl	%r13d, (%rbx)
	jmp	.L684
.L686:
	movq	%r14, %rdi
	call	_ZSt20__throw_out_of_rangePKc@PLT
.L695:
	movq	%r14, %rdi
	call	_ZSt24__throw_invalid_argumentPKc@PLT
.LEHE11:
.L697:
	call	__stack_chk_fail@PLT
.L693:
	endbr64
	movq	%rax, %rdi
.L690:
	cmpl	$0, (%rbx)
	jne	.L691
	movl	%r13d, (%rbx)
.L691:
.LEHB12:
	call	_Unwind_Resume@PLT
.LEHE12:
	.cfi_endproc
.LFE4566:
	.section	.gcc_except_table._ZN9__gnu_cxx6__stoaIffcJEEET0_PFT_PKT1_PPS3_DpT2_EPKcS5_PmS9_,"aG",@progbits,_ZN9__gnu_cxx6__stoaIffcJEEET0_PFT_PKT1_PPS3_DpT2_EPKcS5_PmS9_,comdat
.LLSDA4566:
	.byte	0xff
	.byte	0xff
	.byte	0x1
	.uleb128 .LLSDACSE4566-.LLSDACSB4566
.LLSDACSB4566:
	.uleb128 .LEHB11-.LFB4566
	.uleb128 .LEHE11-.LEHB11
	.uleb128 .L693-.LFB4566
	.uleb128 0
	.uleb128 .LEHB12-.LFB4566
	.uleb128 .LEHE12-.LEHB12
	.uleb128 0
	.uleb128 0
.LLSDACSE4566:
	.section	.text._ZN9__gnu_cxx6__stoaIffcJEEET0_PFT_PKT1_PPS3_DpT2_EPKcS5_PmS9_,"axG",@progbits,_ZN9__gnu_cxx6__stoaIffcJEEET0_PFT_PKT1_PPS3_DpT2_EPKcS5_PmS9_,comdat
	.size	_ZN9__gnu_cxx6__stoaIffcJEEET0_PFT_PKT1_PPS3_DpT2_EPKcS5_PmS9_, .-_ZN9__gnu_cxx6__stoaIffcJEEET0_PFT_PKT1_PPS3_DpT2_EPKcS5_PmS9_
	.section	.rodata._ZNSt6vectorItSaItEE6resizeEm.str1.1,"aMS",@progbits,1
.LC5:
	.string	"vector::_M_default_append"
	.section	.text._ZNSt6vectorItSaItEE6resizeEm,"axG",@progbits,_ZNSt6vectorItSaItEE6resizeEm,comdat
	.align 2
	.p2align 4
	.weak	_ZNSt6vectorItSaItEE6resizeEm
	.type	_ZNSt6vectorItSaItEE6resizeEm, @function
_ZNSt6vectorItSaItEE6resizeEm:
.LFB4860:
	.cfi_startproc
	endbr64
	pushq	%r15
	.cfi_def_cfa_offset 16
	.cfi_offset 15, -16
	pushq	%r14
	.cfi_def_cfa_offset 24
	.cfi_offset 14, -24
	pushq	%r13
	.cfi_def_cfa_offset 32
	.cfi_offset 13, -32
	pushq	%r12
	.cfi_def_cfa_offset 40
	.cfi_offset 12, -40
	pushq	%rbp
	.cfi_def_cfa_offset 48
	.cfi_offset 6, -48
	movq	%rsi, %rbp
	pushq	%rbx
	.cfi_def_cfa_offset 56
	.cfi_offset 3, -56
	movq	%rdi, %rbx
	subq	$24, %rsp
	.cfi_def_cfa_offset 80
	movq	8(%rdi), %rdx
	movq	(%rdi), %r13
	movq	%rdx, %r14
	subq	%r13, %r14
	movq	%r14, %rax
	sarq	%rax
	cmpq	%rax, %rsi
	ja	.L725
	jnb	.L698
	leaq	0(%r13,%rsi,2), %rax
	cmpq	%rdx, %rax
	je	.L698
	movq	%rax, 8(%rdi)
.L698:
	addq	$24, %rsp
	.cfi_remember_state
	.cfi_def_cfa_offset 56
	popq	%rbx
	.cfi_def_cfa_offset 48
	popq	%rbp
	.cfi_def_cfa_offset 40
	popq	%r12
	.cfi_def_cfa_offset 32
	popq	%r13
	.cfi_def_cfa_offset 24
	popq	%r14
	.cfi_def_cfa_offset 16
	popq	%r15
	.cfi_def_cfa_offset 8
	ret
	.p2align 4,,10
	.p2align 3
.L725:
	.cfi_restore_state
	movabsq	$4611686018427387903, %rcx
	movq	%rbp, %r15
	subq	%rax, %rcx
	subq	%rax, %r15
	movq	%rcx, %rsi
	movq	16(%rdi), %rcx
	subq	%rdx, %rcx
	sarq	%rcx
	cmpq	%rcx, %r15
	jbe	.L726
	cmpq	%rsi, %r15
	ja	.L727
	cmpq	%rax, %r15
	movq	%rax, %rdx
	cmovnb	%r15, %rdx
	addq	%rdx, %rax
	jc	.L705
	testq	%rax, %rax
	jne	.L728
	movq	%r14, %r8
	xorl	%r12d, %r12d
	xorl	%ecx, %ecx
.L707:
	addq	%rcx, %r14
	xorl	%eax, %eax
	movw	%ax, (%r14)
	subq	$1, %r15
	je	.L711
	leaq	2(%r14), %rdi
	leaq	(%r15,%r15), %rdx
	xorl	%esi, %esi
	movq	%r8, 8(%rsp)
	movq	%rcx, (%rsp)
	call	memset@PLT
	movq	(%rsp), %rcx
	movq	8(%rsp), %r8
.L711:
	testq	%r8, %r8
	jg	.L729
	testq	%r13, %r13
	jne	.L730
.L713:
	leaq	(%rcx,%rbp,2), %rax
	movq	%rcx, %xmm0
	movq	%r12, 16(%rbx)
	movq	%rax, %xmm1
	punpcklqdq	%xmm1, %xmm0
	movups	%xmm0, (%rbx)
	jmp	.L698
	.p2align 4,,10
	.p2align 3
.L726:
	xorl	%ecx, %ecx
	movw	%cx, (%rdx)
	leaq	2(%rdx), %rcx
	subq	$1, %r15
	je	.L701
	leaq	(%rcx,%r15,2), %rax
	movq	%rcx, %rdi
	xorl	%esi, %esi
	subq	%rdx, %rax
	leaq	-2(%rax), %rbp
	movq	%rbp, %rdx
	call	memset@PLT
	movq	%rax, %rcx
	addq	%rbp, %rcx
.L701:
	movq	%rcx, 8(%rbx)
	jmp	.L698
	.p2align 4,,10
	.p2align 3
.L729:
	movq	%r13, %rsi
	movq	%rcx, %rdi
	movq	%r8, %rdx
	call	memmove@PLT
	movq	16(%rbx), %rsi
	movq	%rax, %rcx
	subq	%r13, %rsi
.L712:
	movq	%r13, %rdi
	movq	%rcx, (%rsp)
	call	_ZdlPvm@PLT
	movq	(%rsp), %rcx
	jmp	.L713
.L730:
	movq	16(%rbx), %rsi
	subq	%r13, %rsi
	jmp	.L712
.L728:
	movabsq	$4611686018427387903, %rdx
	cmpq	%rdx, %rax
	cmovbe	%rax, %rdx
	movq	%rdx, %r12
	addq	%rdx, %r12
.L706:
	movq	%r12, %rdi
	call	_Znwm@PLT
	movq	(%rbx), %r13
	movq	8(%rbx), %r8
	movq	%rax, %rcx
	addq	%rax, %r12
	subq	%r13, %r8
	jmp	.L707
.L705:
	movabsq	$9223372036854775806, %r12
	jmp	.L706
.L727:
	leaq	.LC5(%rip), %rdi
	call	_ZSt20__throw_length_errorPKc@PLT
	.cfi_endproc
.LFE4860:
	.size	_ZNSt6vectorItSaItEE6resizeEm, .-_ZNSt6vectorItSaItEE6resizeEm
	.section	.rodata.str1.1,"aMS",@progbits,1
.LC6:
	.string	"Cannot open file: "
.LC7:
	.string	"P5\n"
.LC8:
	.string	" "
.LC9:
	.string	"\n65535\n"
	.section	.text.unlikely,"ax",@progbits
.LCOLDB11:
	.text
.LHOTB11:
	.p2align 4
	.globl	_Z9write_pgmPKcRSt6vectorItSaItEEii
	.type	_Z9write_pgmPKcRSt6vectorItSaItEEii, @function
_Z9write_pgmPKcRSt6vectorItSaItEEii:
.LFB4493:
	.cfi_startproc
	.cfi_personality 0x9b,DW.ref.__gxx_personality_v0
	.cfi_lsda 0x1b,.LLSDA4493
	endbr64
	pushq	%r15
	.cfi_def_cfa_offset 16
	.cfi_offset 15, -16
	leaq	16+_ZTVSt9basic_iosIcSt11char_traitsIcEE(%rip), %r15
	pushq	%r14
	.cfi_def_cfa_offset 24
	.cfi_offset 14, -24
	pushq	%r13
	.cfi_def_cfa_offset 32
	.cfi_offset 13, -32
	movq	%rdi, %r13
	pushq	%r12
	.cfi_def_cfa_offset 40
	.cfi_offset 12, -40
	pushq	%rbp
	.cfi_def_cfa_offset 48
	.cfi_offset 6, -48
	pushq	%rbx
	.cfi_def_cfa_offset 56
	.cfi_offset 3, -56
	subq	$568, %rsp
	.cfi_def_cfa_offset 624
	movq	%rsi, (%rsp)
	leaq	280(%rsp), %r14
	leaq	32(%rsp), %r12
	movl	%edx, 24(%rsp)
	movq	%r14, %rdi
	movl	%ecx, 28(%rsp)
	movq	%fs:40, %rax
	movq	%rax, 552(%rsp)
	xorl	%eax, %eax
	call	_ZNSt8ios_baseC2Ev@PLT
	movq	8+_ZTTSt14basic_ofstreamIcSt11char_traitsIcEE(%rip), %rbx
	xorl	%eax, %eax
	xorl	%esi, %esi
	pxor	%xmm0, %xmm0
	movw	%ax, 504(%rsp)
	movq	16+_ZTTSt14basic_ofstreamIcSt11char_traitsIcEE(%rip), %rax
	movaps	%xmm0, 512(%rsp)
	movaps	%xmm0, 528(%rsp)
	movq	-24(%rbx), %rdi
	movq	%r15, 280(%rsp)
	addq	%r12, %rdi
	movq	%rbx, 32(%rsp)
	movq	$0, 496(%rsp)
	movq	%rax, (%rdi)
.LEHB13:
	call	_ZNSt9basic_iosIcSt11char_traitsIcEE4initEPSt15basic_streambufIcS1_E@PLT
.LEHE13:
	leaq	24+_ZTVSt14basic_ofstreamIcSt11char_traitsIcEE(%rip), %rax
	leaq	40(%rsp), %rbp
	movq	%rax, 32(%rsp)
	movq	%rbp, %rdi
	addq	$40, %rax
	movq	%rax, 280(%rsp)
.LEHB14:
	call	_ZNSt13basic_filebufIcSt11char_traitsIcEEC1Ev@PLT
.LEHE14:
	movq	%rbp, %rsi
	movq	%r14, %rdi
.LEHB15:
	call	_ZNSt9basic_iosIcSt11char_traitsIcEE4initEPSt15basic_streambufIcS1_E@PLT
	movl	$20, %edx
	movq	%r13, %rsi
	movq	%rbp, %rdi
	call	_ZNSt13basic_filebufIcSt11char_traitsIcEE4openEPKcSt13_Ios_Openmode@PLT
	movq	32(%rsp), %rdx
	movq	-24(%rdx), %rdi
	addq	%r12, %rdi
	testq	%rax, %rax
	je	.L761
	xorl	%esi, %esi
	call	_ZNSt9basic_iosIcSt11char_traitsIcEE5clearESt12_Ios_Iostate@PLT
.LEHE15:
.L733:
	testb	$5, 312(%rsp)
	jne	.L762
	movl	$3, %edx
	leaq	.LC7(%rip), %rsi
	movq	%r12, %rdi
.LEHB16:
	call	_ZSt16__ostream_insertIcSt11char_traitsIcEERSt13basic_ostreamIT_T0_ES6_PKS3_l@PLT
	movl	24(%rsp), %esi
	movq	%r12, %rdi
	call	_ZNSolsEi@PLT
	movl	$1, %edx
	leaq	.LC8(%rip), %rsi
	movq	%rax, %rdi
	movq	%rax, %r13
	call	_ZSt16__ostream_insertIcSt11char_traitsIcEERSt13basic_ostreamIT_T0_ES6_PKS3_l@PLT
	movl	28(%rsp), %esi
	movq	%r13, %rdi
	call	_ZNSolsEi@PLT
	movq	%rax, %rdi
	movl	$7, %edx
	leaq	.LC9(%rip), %rsi
	call	_ZSt16__ostream_insertIcSt11char_traitsIcEERSt13basic_ostreamIT_T0_ES6_PKS3_l@PLT
	movq	(%rsp), %rax
	movq	%r12, %rdi
	movq	(%rax), %rsi
	movq	8(%rax), %rdx
	subq	%rsi, %rdx
	call	_ZNSo5writeEPKcl@PLT
	movq	%rbp, %rdi
	call	_ZNSt13basic_filebufIcSt11char_traitsIcEE5closeEv@PLT
.LEHE16:
	movq	.LC10(%rip), %xmm1
	leaq	16+_ZTVSt13basic_filebufIcSt11char_traitsIcEE(%rip), %rdx
	movq	%rdx, %xmm3
	punpcklqdq	%xmm3, %xmm1
	movaps	%xmm1, (%rsp)
	testq	%rax, %rax
	je	.L763
.L747:
	movdqa	(%rsp), %xmm4
	leaq	64+_ZTVSt14basic_ofstreamIcSt11char_traitsIcEE(%rip), %rax
	movq	%rbp, %rdi
	movq	%rax, 280(%rsp)
	movaps	%xmm4, 32(%rsp)
.LEHB17:
	call	_ZNSt13basic_filebufIcSt11char_traitsIcEE5closeEv@PLT
.LEHE17:
.L749:
	leaq	144(%rsp), %rdi
	call	_ZNSt12__basic_fileIcED1Ev@PLT
	leaq	16+_ZTVSt15basic_streambufIcSt11char_traitsIcEE(%rip), %rax
	leaq	96(%rsp), %rdi
	movq	%rax, 40(%rsp)
	call	_ZNSt6localeD1Ev@PLT
	movq	-24(%rbx), %rax
	movq	%r14, %rdi
	movq	16+_ZTTSt14basic_ofstreamIcSt11char_traitsIcEE(%rip), %rcx
	movq	%rbx, 32(%rsp)
	movq	%rcx, 32(%rsp,%rax)
	movq	%r15, 280(%rsp)
	call	_ZNSt8ios_baseD2Ev@PLT
	movq	552(%rsp), %rax
	subq	%fs:40, %rax
	jne	.L764
	addq	$568, %rsp
	.cfi_remember_state
	.cfi_def_cfa_offset 56
	popq	%rbx
	.cfi_def_cfa_offset 48
	popq	%rbp
	.cfi_def_cfa_offset 40
	popq	%r12
	.cfi_def_cfa_offset 32
	popq	%r13
	.cfi_def_cfa_offset 24
	popq	%r14
	.cfi_def_cfa_offset 16
	popq	%r15
	.cfi_def_cfa_offset 8
	ret
	.p2align 4,,10
	.p2align 3
.L762:
	.cfi_restore_state
	movl	$18, %edx
	leaq	.LC6(%rip), %rsi
	leaq	_ZSt4cerr(%rip), %rdi
.LEHB18:
	call	_ZSt16__ostream_insertIcSt11char_traitsIcEERSt13basic_ostreamIT_T0_ES6_PKS3_l@PLT
	testq	%r13, %r13
	je	.L765
	movq	%r13, %rdi
	call	strlen@PLT
	movq	%r13, %rsi
	leaq	_ZSt4cerr(%rip), %rdi
	movq	%rax, %rdx
	call	_ZSt16__ostream_insertIcSt11char_traitsIcEERSt13basic_ostreamIT_T0_ES6_PKS3_l@PLT
.L740:
	movq	_ZSt4cerr(%rip), %rax
	leaq	_ZSt4cerr(%rip), %rcx
	movq	-24(%rax), %rax
	movq	240(%rcx,%rax), %r13
	testq	%r13, %r13
	je	.L766
	cmpb	$0, 56(%r13)
	je	.L742
	movsbl	67(%r13), %esi
.L743:
	leaq	_ZSt4cerr(%rip), %rdi
	call	_ZNSo3putEc@PLT
	movq	.LC10(%rip), %xmm2
	movq	%rax, %rdi
	leaq	16+_ZTVSt13basic_filebufIcSt11char_traitsIcEE(%rip), %rax
	movq	%rax, %xmm5
	punpcklqdq	%xmm5, %xmm2
	movaps	%xmm2, (%rsp)
	call	_ZNSo5flushEv@PLT
.LEHE18:
	movdqa	(%rsp), %xmm2
	leaq	64+_ZTVSt14basic_ofstreamIcSt11char_traitsIcEE(%rip), %rax
	movq	%rbp, %rdi
	movq	%rax, 280(%rsp)
	movaps	%xmm2, 32(%rsp)
.LEHB19:
	call	_ZNSt13basic_filebufIcSt11char_traitsIcEE5closeEv@PLT
.LEHE19:
	jmp	.L749
	.p2align 4,,10
	.p2align 3
.L761:
	movl	32(%rdi), %esi
	orl	$4, %esi
.LEHB20:
	call	_ZNSt9basic_iosIcSt11char_traitsIcEE5clearESt12_Ios_Iostate@PLT
.LEHE20:
	jmp	.L733
	.p2align 4,,10
	.p2align 3
.L742:
	movq	%r13, %rdi
.LEHB21:
	call	_ZNKSt5ctypeIcE13_M_widen_initEv@PLT
	movq	0(%r13), %rax
	leaq	_ZNKSt5ctypeIcE8do_widenEc(%rip), %rdx
	movl	$10, %esi
	movq	48(%rax), %rax
	cmpq	%rdx, %rax
	je	.L743
	movq	%r13, %rdi
	call	*%rax
	movsbl	%al, %esi
	jmp	.L743
	.p2align 4,,10
	.p2align 3
.L763:
	movq	32(%rsp), %rax
	movq	-24(%rax), %rdi
	addq	%r12, %rdi
	movl	32(%rdi), %esi
	orl	$4, %esi
	call	_ZNSt9basic_iosIcSt11char_traitsIcEE5clearESt12_Ios_Iostate@PLT
	jmp	.L747
	.p2align 4,,10
	.p2align 3
.L765:
	movq	_ZSt4cerr(%rip), %rax
	leaq	_ZSt4cerr(%rip), %rdi
	addq	-24(%rax), %rdi
	movl	32(%rdi), %esi
	orl	$1, %esi
	call	_ZNSt9basic_iosIcSt11char_traitsIcEE5clearESt12_Ios_Iostate@PLT
	jmp	.L740
.L764:
	call	__stack_chk_fail@PLT
.L766:
	call	_ZSt16__throw_bad_castv@PLT
.LEHE21:
.L753:
	endbr64
	movq	%rax, %rbp
	jmp	.L750
.L758:
	endbr64
	movq	%rax, %rdi
	jmp	.L748
.L757:
	endbr64
	movq	%rax, %rdi
	jmp	.L745
.L755:
	endbr64
	movq	%rax, %rbp
	jmp	.L737
.L754:
	endbr64
	movq	%rax, %rbp
	jmp	.L738
.L756:
	endbr64
	movq	%rax, %r12
	jmp	.L736
	.section	.gcc_except_table,"a",@progbits
	.align 4
.LLSDA4493:
	.byte	0xff
	.byte	0x9b
	.uleb128 .LLSDATT4493-.LLSDATTD4493
.LLSDATTD4493:
	.byte	0x1
	.uleb128 .LLSDACSE4493-.LLSDACSB4493
.LLSDACSB4493:
	.uleb128 .LEHB13-.LFB4493
	.uleb128 .LEHE13-.LEHB13
	.uleb128 .L754-.LFB4493
	.uleb128 0
	.uleb128 .LEHB14-.LFB4493
	.uleb128 .LEHE14-.LEHB14
	.uleb128 .L755-.LFB4493
	.uleb128 0
	.uleb128 .LEHB15-.LFB4493
	.uleb128 .LEHE15-.LEHB15
	.uleb128 .L756-.LFB4493
	.uleb128 0
	.uleb128 .LEHB16-.LFB4493
	.uleb128 .LEHE16-.LEHB16
	.uleb128 .L753-.LFB4493
	.uleb128 0
	.uleb128 .LEHB17-.LFB4493
	.uleb128 .LEHE17-.LEHB17
	.uleb128 .L758-.LFB4493
	.uleb128 0x1
	.uleb128 .LEHB18-.LFB4493
	.uleb128 .LEHE18-.LEHB18
	.uleb128 .L753-.LFB4493
	.uleb128 0
	.uleb128 .LEHB19-.LFB4493
	.uleb128 .LEHE19-.LEHB19
	.uleb128 .L757-.LFB4493
	.uleb128 0x1
	.uleb128 .LEHB20-.LFB4493
	.uleb128 .LEHE20-.LEHB20
	.uleb128 .L756-.LFB4493
	.uleb128 0
	.uleb128 .LEHB21-.LFB4493
	.uleb128 .LEHE21-.LEHB21
	.uleb128 .L753-.LFB4493
	.uleb128 0
.LLSDACSE4493:
	.byte	0x1
	.byte	0
	.align 4
	.long	0

.LLSDATT4493:
	.text
	.cfi_endproc
	.section	.text.unlikely
	.cfi_startproc
	.cfi_personality 0x9b,DW.ref.__gxx_personality_v0
	.cfi_lsda 0x1b,.LLSDAC4493
	.type	_Z9write_pgmPKcRSt6vectorItSaItEEii.cold, @function
_Z9write_pgmPKcRSt6vectorItSaItEEii.cold:
.LFSB4493:
.L750:
	.cfi_def_cfa_offset 624
	.cfi_offset 3, -56
	.cfi_offset 6, -48
	.cfi_offset 12, -40
	.cfi_offset 13, -32
	.cfi_offset 14, -24
	.cfi_offset 15, -16
	movq	%r12, %rdi
	call	_ZNSt14basic_ofstreamIcSt11char_traitsIcEED1Ev@PLT
	movq	%rbp, %rdi
.LEHB22:
	call	_Unwind_Resume@PLT
.LEHE22:
.L748:
	call	__cxa_begin_catch@PLT
	call	__cxa_end_catch@PLT
	jmp	.L749
.L745:
	call	__cxa_begin_catch@PLT
	call	__cxa_end_catch@PLT
	jmp	.L749
.L736:
	movq	%rbp, %rdi
	movq	%r12, %rbp
	call	_ZNSt13basic_filebufIcSt11char_traitsIcEED1Ev@PLT
.L737:
	movq	%rbx, 32(%rsp)
	movq	-24(%rbx), %rax
	movq	16+_ZTTSt14basic_ofstreamIcSt11char_traitsIcEE(%rip), %rbx
	movq	%rbx, 32(%rsp,%rax)
.L738:
	movq	%r14, %rdi
	movq	%r15, 280(%rsp)
	call	_ZNSt8ios_baseD2Ev@PLT
	movq	%rbp, %rdi
.LEHB23:
	call	_Unwind_Resume@PLT
.LEHE23:
	.cfi_endproc
.LFE4493:
	.section	.gcc_except_table
	.align 4
.LLSDAC4493:
	.byte	0xff
	.byte	0x9b
	.uleb128 .LLSDATTC4493-.LLSDATTDC4493
.LLSDATTDC4493:
	.byte	0x1
	.uleb128 .LLSDACSEC4493-.LLSDACSBC4493
.LLSDACSBC4493:
	.uleb128 .LEHB22-.LCOLDB11
	.uleb128 .LEHE22-.LEHB22
	.uleb128 0
	.uleb128 0
	.uleb128 .LEHB23-.LCOLDB11
	.uleb128 .LEHE23-.LEHB23
	.uleb128 0
	.uleb128 0
.LLSDACSEC4493:
	.byte	0x1
	.byte	0
	.align 4
	.long	0

.LLSDATTC4493:
	.section	.text.unlikely
	.text
	.size	_Z9write_pgmPKcRSt6vectorItSaItEEii, .-_Z9write_pgmPKcRSt6vectorItSaItEEii
	.section	.text.unlikely
	.size	_Z9write_pgmPKcRSt6vectorItSaItEEii.cold, .-_Z9write_pgmPKcRSt6vectorItSaItEEii.cold
.LCOLDE11:
	.text
.LHOTE11:
	.section	.rodata.str1.1
.LC12:
	.string	"Usage: "
	.section	.rodata.str1.8
	.align 8
.LC13:
	.string	" <xl> <yl> <xr> <yr> <width> <height> <max_iterations>"
	.section	.rodata.str1.1
.LC14:
	.string	"stof"
.LC15:
	.string	"stoi"
.LC16:
	.string	"Running with "
.LC17:
	.string	" MPI processes."
	.section	.rodata.str1.8
	.align 8
.LC18:
	.string	"cannot create std::vector larger than max_size()"
	.section	.rodata.str1.1
.LC19:
	.string	"Process "
.LC20:
	.string	" finished computations at "
.LC21:
	.string	" seconds."
.LC22:
	.string	"Total time taken: "
.LC23:
	.string	"mandelbrot.pgm"
	.section	.text.unlikely
.LCOLDB24:
	.section	.text.startup,"ax",@progbits
.LHOTB24:
	.p2align 4
	.globl	main
	.type	main, @function
main:
.LFB4495:
	.cfi_startproc
	.cfi_personality 0x9b,DW.ref.__gxx_personality_v0
	.cfi_lsda 0x1b,.LLSDA4495
	endbr64
	pushq	%rbp
	.cfi_def_cfa_offset 16
	.cfi_offset 6, -16
	movq	%rsp, %rbp
	.cfi_def_cfa_register 6
	pushq	%r15
	pushq	%r14
	pushq	%r13
	pushq	%r12
	pushq	%rbx
	subq	$328, %rsp
	.cfi_offset 15, -24
	.cfi_offset 14, -32
	.cfi_offset 13, -40
	.cfi_offset 12, -48
	.cfi_offset 3, -56
	movl	%edi, -244(%rbp)
	movq	%rsi, -256(%rbp)
	movq	%fs:40, %rdx
	movq	%rdx, -56(%rbp)
	xorl	%edx, %edx
	cmpl	$7, %edi
	jle	.L875
	movq	-256(%rbp), %rax
	leaq	.LC14(%rip), %r13
	movq	8(%rax), %rsi
	leaq	-96(%rbp), %rax
	movq	%rax, %rdi
	movq	%rax, %r14
.LEHB24:
	call	_ZNSt7__cxx1112basic_stringIcSt11char_traitsIcESaIcEEC2IS3_EEPKcRKS3_.constprop.0
.LEHE24:
	movq	-96(%rbp), %rdx
	xorl	%ecx, %ecx
	movq	%r13, %rsi
	movq	strtof@GOTPCREL(%rip), %r12
	movq	%r12, %rdi
.LEHB25:
	call	_ZN9__gnu_cxx6__stoaIffcJEEET0_PFT_PKT1_PPS3_DpT2_EPKcS5_PmS9_
.LEHE25:
	movq	-96(%rbp), %rdi
	leaq	-80(%rbp), %rbx
	movss	%xmm0, -272(%rbp)
	cmpq	%rbx, %rdi
	je	.L770
	movq	-80(%rbp), %rax
	leaq	1(%rax), %rsi
	call	_ZdlPvm@PLT
.L770:
	movq	-256(%rbp), %rax
	movq	%r14, %rdi
	movq	16(%rax), %rsi
.LEHB26:
	call	_ZNSt7__cxx1112basic_stringIcSt11char_traitsIcESaIcEEC2IS3_EEPKcRKS3_.constprop.0
.LEHE26:
	movq	-96(%rbp), %rdx
	xorl	%ecx, %ecx
	movq	%r13, %rsi
	movq	%r12, %rdi
.LEHB27:
	call	_ZN9__gnu_cxx6__stoaIffcJEEET0_PFT_PKT1_PPS3_DpT2_EPKcS5_PmS9_
.LEHE27:
	movq	-96(%rbp), %rdi
	movss	%xmm0, -264(%rbp)
	cmpq	%rbx, %rdi
	je	.L771
	movq	-80(%rbp), %rax
	leaq	1(%rax), %rsi
	call	_ZdlPvm@PLT
.L771:
	movq	-256(%rbp), %rax
	movq	%r14, %rdi
	movq	24(%rax), %rsi
.LEHB28:
	call	_ZNSt7__cxx1112basic_stringIcSt11char_traitsIcESaIcEEC2IS3_EEPKcRKS3_.constprop.0
.LEHE28:
	movq	-96(%rbp), %rdx
	xorl	%ecx, %ecx
	movq	%r13, %rsi
	movq	%r12, %rdi
.LEHB29:
	call	_ZN9__gnu_cxx6__stoaIffcJEEET0_PFT_PKT1_PPS3_DpT2_EPKcS5_PmS9_
.LEHE29:
	movq	-96(%rbp), %rdi
	movd	%xmm0, %r15d
	cmpq	%rbx, %rdi
	je	.L772
	movq	-80(%rbp), %rax
	leaq	1(%rax), %rsi
	call	_ZdlPvm@PLT
.L772:
	movq	-256(%rbp), %rax
	movq	%r14, %rdi
	movq	32(%rax), %rsi
.LEHB30:
	call	_ZNSt7__cxx1112basic_stringIcSt11char_traitsIcESaIcEEC2IS3_EEPKcRKS3_.constprop.0
.LEHE30:
	movq	-96(%rbp), %rdx
	xorl	%ecx, %ecx
	movq	%r13, %rsi
	movq	%r12, %rdi
.LEHB31:
	call	_ZN9__gnu_cxx6__stoaIffcJEEET0_PFT_PKT1_PPS3_DpT2_EPKcS5_PmS9_
.LEHE31:
	movq	-96(%rbp), %rdi
	movss	%xmm0, -296(%rbp)
	cmpq	%rbx, %rdi
	je	.L773
	movq	-80(%rbp), %rax
	leaq	1(%rax), %rsi
	call	_ZdlPvm@PLT
.L773:
	movq	-256(%rbp), %rax
	movq	%r14, %rdi
	leaq	.LC15(%rip), %r13
	movq	40(%rax), %rsi
.LEHB32:
	call	_ZNSt7__cxx1112basic_stringIcSt11char_traitsIcESaIcEEC2IS3_EEPKcRKS3_.constprop.0
.LEHE32:
	movq	-96(%rbp), %rdx
	xorl	%ecx, %ecx
	movq	%r13, %rsi
	movq	strtol@GOTPCREL(%rip), %r12
	movl	$10, %r8d
	movq	%r12, %rdi
.LEHB33:
	call	_ZN9__gnu_cxx6__stoaIlicJiEEET0_PFT_PKT1_PPS3_DpT2_EPKcS5_PmS9_
.LEHE33:
	movq	-96(%rbp), %rdi
	movl	%eax, -248(%rbp)
	cmpq	%rbx, %rdi
	je	.L774
	movq	-80(%rbp), %rax
	leaq	1(%rax), %rsi
	call	_ZdlPvm@PLT
.L774:
	movq	-256(%rbp), %rax
	movq	%r14, %rdi
	movq	48(%rax), %rsi
.LEHB34:
	call	_ZNSt7__cxx1112basic_stringIcSt11char_traitsIcESaIcEEC2IS3_EEPKcRKS3_.constprop.0
.LEHE34:
	movq	-96(%rbp), %rdx
	xorl	%ecx, %ecx
	movq	%r13, %rsi
	movl	$10, %r8d
	movq	%r12, %rdi
.LEHB35:
	call	_ZN9__gnu_cxx6__stoaIlicJiEEET0_PFT_PKT1_PPS3_DpT2_EPKcS5_PmS9_
.LEHE35:
	movq	-96(%rbp), %rdi
	movl	%eax, -276(%rbp)
	cmpq	%rbx, %rdi
	je	.L775
	movq	-80(%rbp), %rax
	leaq	1(%rax), %rsi
	call	_ZdlPvm@PLT
.L775:
	movq	-256(%rbp), %rax
	movq	%r14, %rdi
	movq	56(%rax), %rsi
.LEHB36:
	call	_ZNSt7__cxx1112basic_stringIcSt11char_traitsIcESaIcEEC2IS3_EEPKcRKS3_.constprop.0
.LEHE36:
	movq	-96(%rbp), %rdx
	xorl	%ecx, %ecx
	movq	%r13, %rsi
	movl	$10, %r8d
	movq	%r12, %rdi
.LEHB37:
	call	_ZN9__gnu_cxx6__stoaIlicJiEEET0_PFT_PKT1_PPS3_DpT2_EPKcS5_PmS9_
.LEHE37:
	leaq	-228(%rbp), %rcx
	movd	%eax, %xmm6
	movq	-96(%rbp), %rdi
	leaq	-232(%rbp), %r12
	movq	%rcx, %xmm7
	movq	%r12, %xmm3
	movq	%rcx, %r13
	movd	-248(%rbp), %xmm4
	punpcklqdq	%xmm7, %xmm3
	movss	-272(%rbp), %xmm5
	movss	-264(%rbp), %xmm7
	punpckldq	%xmm6, %xmm4
	movaps	%xmm3, -336(%rbp)
	movq	%xmm4, -312(%rbp)
	unpcklps	%xmm7, %xmm5
	movlps	%xmm5, -304(%rbp)
	cmpq	%rbx, %rdi
	je	.L776
	movq	-80(%rbp), %rax
	leaq	1(%rax), %rsi
	call	_ZdlPvm@PLT
.L776:
	leaq	-256(%rbp), %rsi
	leaq	-244(%rbp), %rdi
.LEHB38:
	call	MPI_Init@PLT
	leaq	ompi_mpi_comm_world(%rip), %r14
	movq	%r12, %rsi
	movq	%r14, %rdi
	call	MPI_Comm_rank@PLT
	movq	%r13, %rsi
	movq	%r14, %rdi
	call	MPI_Comm_size@PLT
	call	MPI_Wtime@PLT
	cmpl	$0, -232(%rbp)
	movsd	%xmm0, -288(%rbp)
	je	.L876
.L777:
	movl	-248(%rbp), %ebx
	movl	-276(%rbp), %ecx
	pxor	%xmm1, %xmm1
	pxor	%xmm2, %xmm2
	movd	%r15d, %xmm0
	subss	-272(%rbp), %xmm0
	leal	-1(%rbx), %eax
	imull	%ecx, %ebx
	cvtsi2ssl	%eax, %xmm1
	leal	-1(%rcx), %eax
	cvtsi2ssl	%eax, %xmm2
	movl	%ebx, %eax
	cltd
	idivl	-228(%rbp)
	divss	%xmm1, %xmm0
	movss	-296(%rbp), %xmm1
	subss	-264(%rbp), %xmm1
	divss	%xmm2, %xmm1
	movl	%edx, %r13d
	unpcklps	%xmm1, %xmm0
	cmpl	%edx, -232(%rbp)
	jl	.L877
	cltq
	movq	%rax, -264(%rbp)
.L779:
	movabsq	$4611686018427387903, %rax
	cmpq	%rax, -264(%rbp)
	ja	.L878
	movq	-264(%rbp), %rax
	pxor	%xmm1, %xmm1
	movq	$0, -208(%rbp)
	movaps	%xmm1, -224(%rbp)
	movq	%rax, %r15
	addq	%rax, %r15
	testq	%rax, %rax
	je	.L781
	movq	%r15, %rdi
	movlps	%xmm0, -272(%rbp)
	call	_Znwm@PLT
.LEHE38:
	cmpq	$1, -264(%rbp)
	movq	-272(%rbp), %xmm0
	movq	%rax, %xmm1
	leaq	(%rax,%r15), %r12
	movw	$0, (%rax)
	leaq	2(%rax), %rdi
	punpcklqdq	%xmm1, %xmm1
	movq	%r12, -208(%rbp)
	movaps	%xmm1, -224(%rbp)
	je	.L828
	cmpq	%r12, %rdi
	je	.L782
	leaq	-2(%r15), %rdx
	xorl	%esi, %esi
	movlps	%xmm0, -264(%rbp)
	call	memset@PLT
	movq	-264(%rbp), %xmm0
.L782:
	movq	-312(%rbp), %rax
	xorl	%ecx, %ecx
	xorl	%edx, %edx
	movlps	%xmm0, -120(%rbp)
	movdqa	-336(%rbp), %xmm7
	leaq	main._omp_fn.0(%rip), %rdi
	movq	%r12, -216(%rbp)
	movq	%rax, -128(%rbp)
	movq	-304(%rbp), %rax
	movl	%ebx, -112(%rbp)
	movq	%rax, -136(%rbp)
	leaq	-224(%rbp), %rax
	movq	%rax, -144(%rbp)
	leaq	-160(%rbp), %rax
	movq	%rax, %rsi
	movq	%rax, -272(%rbp)
	movaps	%xmm7, -160(%rbp)
	call	GOMP_parallel@PLT
	pxor	%xmm0, %xmm0
	cmpl	$0, -232(%rbp)
	movq	$0, -176(%rbp)
	movaps	%xmm0, -192(%rbp)
	je	.L783
.L786:
	movslq	-228(%rbp), %rdi
	movabsq	$2305843009213693950, %rax
	cmpq	%rax, %rdi
	ja	.L879
	salq	$2, %rdi
.LEHB39:
	call	_Znam@PLT
	movslq	-228(%rbp), %rdi
	movq	%rax, %r12
	movabsq	$2305843009213693950, %rax
	cmpq	%rax, %rdi
	ja	.L880
	salq	$2, %rdi
	call	_Znam@PLT
	movslq	-228(%rbp), %rdi
	movq	%rax, -264(%rbp)
	testl	%edi, %edi
	jle	.L792
	movl	%ebx, %eax
	movq	-264(%rbp), %r10
	xorl	%esi, %esi
	cltd
	idivl	%edi
	xorl	%edx, %edx
	.p2align 4,,10
	.p2align 3
.L791:
	xorl	%ecx, %ecx
	cmpl	%edx, %r13d
	movl	%esi, (%r10,%rdx,4)
	setg	%cl
	addl	%eax, %ecx
	movl	%ecx, (%r12,%rdx,4)
	addq	$1, %rdx
	addl	%ecx, %esi
	cmpq	%rdi, %rdx
	jne	.L791
	movq	%r10, -264(%rbp)
.L792:
	call	MPI_Wtime@PLT
	movl	$8, %edx
	leaq	.LC19(%rip), %rsi
	movq	%xmm0, %r15
	leaq	_ZSt4cout(%rip), %rdi
	call	_ZSt16__ostream_insertIcSt11char_traitsIcEERSt13basic_ostreamIT_T0_ES6_PKS3_l@PLT
	movl	-232(%rbp), %esi
	leaq	_ZSt4cout(%rip), %rdi
	call	_ZNSolsEi@PLT
	movl	$26, %edx
	leaq	.LC20(%rip), %rsi
	movq	%rax, %rdi
	movq	%rax, %r13
	call	_ZSt16__ostream_insertIcSt11char_traitsIcEERSt13basic_ostreamIT_T0_ES6_PKS3_l@PLT
	movq	%r15, %xmm0
	subsd	-288(%rbp), %xmm0
	movq	%r13, %rdi
	call	_ZNSo9_M_insertIdEERSoT_@PLT
	movl	$9, %edx
	leaq	.LC21(%rip), %rsi
	movq	%rax, %rdi
	movq	%rax, %r13
	call	_ZSt16__ostream_insertIcSt11char_traitsIcEERSt13basic_ostreamIT_T0_ES6_PKS3_l@PLT
	movq	%r13, %rdi
	call	_ZSt4endlIcSt11char_traitsIcEERSt13basic_ostreamIT_T0_ES6_.isra.0
	movq	-224(%rbp), %rdi
	movq	-216(%rbp), %rsi
	leaq	ompi_mpi_unsigned_short(%rip), %rdx
	pushq	%rax
	movq	-192(%rbp), %r13
	movq	-264(%rbp), %r9
	pushq	%r14
	movq	%r12, %r8
	pushq	$0
	subq	%rdi, %rsi
	pushq	%rdx
	sarq	%rsi
	movq	%r13, %rcx
	.cfi_escape 0x2e,0x20
	call	MPI_Gatherv@PLT
.LEHE39:
	movl	-232(%rbp), %r14d
	pxor	%xmm0, %xmm0
	addq	$32, %rsp
	movq	$0, -144(%rbp)
	movaps	%xmm0, -160(%rbp)
	testl	%r14d, %r14d
	je	.L881
.L793:
	movq	%r12, %rdi
	call	_ZdaPv@PLT
	movq	-264(%rbp), %rdi
	call	_ZdaPv@PLT
.LEHB40:
	.cfi_escape 0x2e,0
	call	MPI_Finalize@PLT
.LEHE40:
	movq	-160(%rbp), %rdi
	testq	%rdi, %rdi
	je	.L805
	movq	-144(%rbp), %rsi
	subq	%rdi, %rsi
	call	_ZdlPvm@PLT
.L805:
	testq	%r13, %r13
	je	.L806
	movq	-176(%rbp), %rsi
	movq	%r13, %rdi
	subq	%r13, %rsi
	call	_ZdlPvm@PLT
.L806:
	movq	-224(%rbp), %rdi
	testq	%rdi, %rdi
	je	.L807
	movq	-208(%rbp), %rsi
	subq	%rdi, %rsi
	call	_ZdlPvm@PLT
.L807:
	xorl	%eax, %eax
.L767:
	movq	-56(%rbp), %rdx
	subq	%fs:40, %rdx
	jne	.L882
	leaq	-40(%rbp), %rsp
	popq	%rbx
	popq	%r12
	popq	%r13
	popq	%r14
	popq	%r15
	popq	%rbp
	.cfi_remember_state
	.cfi_def_cfa 7, 8
	ret
.L877:
	.cfi_restore_state
	addl	$1, %eax
	cltq
	movq	%rax, -264(%rbp)
	jmp	.L779
.L876:
	movl	$13, %edx
	leaq	.LC16(%rip), %rsi
	leaq	_ZSt4cout(%rip), %rdi
.LEHB41:
	call	_ZSt16__ostream_insertIcSt11char_traitsIcEERSt13basic_ostreamIT_T0_ES6_PKS3_l@PLT
	movl	-228(%rbp), %esi
	leaq	_ZSt4cout(%rip), %rdi
	call	_ZNSolsEi@PLT
	movl	$15, %edx
	leaq	.LC17(%rip), %rsi
	movq	%rax, %rbx
	movq	%rax, %rdi
	call	_ZSt16__ostream_insertIcSt11char_traitsIcEERSt13basic_ostreamIT_T0_ES6_PKS3_l@PLT
	movq	%rbx, %rdi
	call	_ZSt4endlIcSt11char_traitsIcEERSt13basic_ostreamIT_T0_ES6_.isra.0
	jmp	.L777
.L875:
	movl	$7, %edx
	leaq	.LC12(%rip), %rsi
	leaq	_ZSt4cerr(%rip), %rdi
	call	_ZSt16__ostream_insertIcSt11char_traitsIcEERSt13basic_ostreamIT_T0_ES6_PKS3_l@PLT
	movq	-256(%rbp), %rax
	leaq	_ZSt4cerr(%rip), %rdi
	movq	(%rax), %rsi
	call	_ZStlsISt11char_traitsIcEERSt13basic_ostreamIcT_ES5_PKc@PLT
	movl	$54, %edx
	leaq	.LC13(%rip), %rsi
	movq	%rax, %rbx
	movq	%rax, %rdi
	call	_ZSt16__ostream_insertIcSt11char_traitsIcEERSt13basic_ostreamIT_T0_ES6_PKS3_l@PLT
	movq	%rbx, %rdi
	call	_ZSt4endlIcSt11char_traitsIcEERSt13basic_ostreamIT_T0_ES6_.isra.0
.LEHE41:
	movl	$1, %eax
	jmp	.L767
.L781:
	movq	$0, -224(%rbp)
	xorl	%r12d, %r12d
	movq	$0, -208(%rbp)
	jmp	.L782
.L783:
	movslq	%ebx, %rsi
	leaq	-192(%rbp), %rdi
.LEHB42:
	call	_ZNSt6vectorItSaItEE6resizeEm
.LEHE42:
	jmp	.L786
.L881:
	movq	-272(%rbp), %rdi
	movslq	%ebx, %rsi
.LEHB43:
	call	_ZNSt6vectorItSaItEE6resizeEm
	movl	%ebx, %eax
	movl	-228(%rbp), %r11d
	cltd
	idivl	%r11d
	movl	%eax, %ebx
	testl	%r11d, %r11d
	jle	.L799
	movq	-160(%rbp), %r15
	movq	%r15, -336(%rbp)
	testl	%edx, %edx
	jle	.L829
	cmpl	%edx, %r11d
	leal	1(%rax), %r10d
	movslq	%r11d, %rdi
	cltq
	cmovle	%r11d, %edx
	movq	%rdi, %rsi
	xorl	%r9d, %r9d
	xorl	%r8d, %r8d
	movq	%rax, -296(%rbp)
	addq	$1, %rax
	leaq	2(%r13), %rcx
	addq	%rdi, %rsi
	addq	%rax, %rax
	movq	%rdi, -312(%rbp)
	movq	-264(%rbp), %rdi
	movl	%edx, %r14d
	movq	%rax, -320(%rbp)
	movl	%ebx, %eax
	movq	$-2, %rdx
	addq	%rax, %rax
	movq	%rdi, -352(%rbp)
	movq	%r12, -344(%rbp)
	subq	%rax, %rdx
	movq	-320(%rbp), %r12
	movq	%rcx, -304(%rbp)
	addq	%rax, %rcx
	movl	%r11d, -280(%rbp)
	movq	%r15, %r11
	movl	%r14d, %r15d
	movq	%r13, -360(%rbp)
	movq	%rdx, %r13
	.p2align 4,,10
	.p2align 3
.L798:
	leal	(%r10,%r9), %r14d
	movl	%r8d, %edi
	leaq	0(%r13,%rcx), %rax
	leaq	(%r11,%r8,2), %rdx
	cmpl	%r14d, %r9d
	jge	.L804
	movl	%r15d, -264(%rbp)
	.p2align 4,,10
	.p2align 3
.L803:
	movzwl	(%rax), %r15d
	addq	$2, %rax
	movw	%r15w, (%rdx)
	addq	%rsi, %rdx
	cmpq	%rax, %rcx
	jne	.L803
	movl	-264(%rbp), %r15d
.L804:
	addq	$1, %r8
	addl	$1, %edi
	addl	%r10d, %r9d
	addq	%r12, %rcx
	cmpl	%r8d, %r15d
	jg	.L798
	movq	-352(%rbp), %rax
	movl	-280(%rbp), %r11d
	movq	-344(%rbp), %r12
	movq	-360(%rbp), %r13
	movq	%rax, -264(%rbp)
	cmpl	%edi, %r11d
	jle	.L799
.L796:
	leal	-1(%rbx), %r9d
	movq	-296(%rbp), %r10
	movslq	%r14d, %rcx
	movslq	%edi, %r8
	movq	-312(%rbp), %rsi
	addq	%r9, %rcx
	movq	-264(%rbp), %r15
	notq	%r9
	addq	%r8, %r8
	addq	%rcx, %rcx
	addq	-336(%rbp), %r8
	addq	%r10, %r10
	addq	-304(%rbp), %rcx
	addq	%rsi, %rsi
	addq	%r9, %r9
	.p2align 4,,10
	.p2align 3
.L802:
	movl	%r14d, %eax
	addl	%ebx, %r14d
	cmpl	%r14d, %eax
	jge	.L800
	movq	%r15, -264(%rbp)
	leaq	(%r9,%rcx), %rax
	movq	%r8, %rdx
	.p2align 4,,10
	.p2align 3
.L801:
	movzwl	(%rax), %r15d
	addq	$2, %rax
	movw	%r15w, (%rdx)
	addq	%rsi, %rdx
	cmpq	%rax, %rcx
	jne	.L801
	movq	-264(%rbp), %r15
.L800:
	addl	$1, %edi
	addq	$2, %r8
	addq	%r10, %rcx
	cmpl	%edi, %r11d
	jg	.L802
	movq	%r15, -264(%rbp)
.L799:
	cmpl	$0, -232(%rbp)
	jne	.L793
	movl	$18, %edx
	leaq	.LC22(%rip), %rsi
	leaq	_ZSt4cout(%rip), %rdi
	call	_ZSt16__ostream_insertIcSt11char_traitsIcEERSt13basic_ostreamIT_T0_ES6_PKS3_l@PLT
	call	MPI_Wtime@PLT
	subsd	-288(%rbp), %xmm0
	leaq	_ZSt4cout(%rip), %rdi
	call	_ZNSo9_M_insertIdEERSoT_@PLT
	movl	$9, %edx
	leaq	.LC21(%rip), %rsi
	movq	%rax, %rdi
	movq	%rax, %r14
	call	_ZSt16__ostream_insertIcSt11char_traitsIcEERSt13basic_ostreamIT_T0_ES6_PKS3_l@PLT
	movq	%r14, %rdi
	call	_ZSt4endlIcSt11char_traitsIcEERSt13basic_ostreamIT_T0_ES6_.isra.0
	movl	-276(%rbp), %ecx
	movl	-248(%rbp), %edx
	leaq	.LC23(%rip), %rdi
	movq	-272(%rbp), %rsi
	call	_Z9write_pgmPKcRSt6vectorItSaItEEii
.LEHE43:
	jmp	.L793
.L829:
	cltq
	xorl	%edi, %edi
	movq	%rax, -296(%rbp)
	leaq	2(%r13), %rax
	movq	%rax, -304(%rbp)
	movslq	%r11d, %rax
	movq	%rax, -312(%rbp)
	jmp	.L796
.L828:
	movq	%rdi, %r12
	jmp	.L782
.L882:
	call	__stack_chk_fail@PLT
.L878:
	leaq	.LC18(%rip), %rdi
.LEHB44:
	call	_ZSt20__throw_length_errorPKc@PLT
.LEHE44:
.L833:
	endbr64
	movq	%rax, %r14
	jmp	.L820
.L835:
	endbr64
	movq	%rax, %r14
	jmp	.L820
.L834:
	endbr64
	movq	%rax, %r14
	jmp	.L820
.L830:
	endbr64
	movq	%rax, %rbx
	jmp	.L808
.L832:
	endbr64
	movq	%rax, %r14
	jmp	.L820
.L880:
	jmp	.L788
.L838:
	endbr64
	movq	%rax, %rbx
	jmp	.L822
.L831:
	endbr64
	movq	%rax, %r14
	jmp	.L820
.L836:
	endbr64
	movq	%rax, %r14
	jmp	.L820
.L879:
	jmp	.L864
.L862:
	endbr64
	jmp	.L863
	.section	.gcc_except_table
.LLSDA4495:
	.byte	0xff
	.byte	0xff
	.byte	0x1
	.uleb128 .LLSDACSE4495-.LLSDACSB4495
.LLSDACSB4495:
	.uleb128 .LEHB24-.LFB4495
	.uleb128 .LEHE24-.LEHB24
	.uleb128 0
	.uleb128 0
	.uleb128 .LEHB25-.LFB4495
	.uleb128 .LEHE25-.LEHB25
	.uleb128 .L830-.LFB4495
	.uleb128 0
	.uleb128 .LEHB26-.LFB4495
	.uleb128 .LEHE26-.LEHB26
	.uleb128 0
	.uleb128 0
	.uleb128 .LEHB27-.LFB4495
	.uleb128 .LEHE27-.LEHB27
	.uleb128 .L831-.LFB4495
	.uleb128 0
	.uleb128 .LEHB28-.LFB4495
	.uleb128 .LEHE28-.LEHB28
	.uleb128 0
	.uleb128 0
	.uleb128 .LEHB29-.LFB4495
	.uleb128 .LEHE29-.LEHB29
	.uleb128 .L832-.LFB4495
	.uleb128 0
	.uleb128 .LEHB30-.LFB4495
	.uleb128 .LEHE30-.LEHB30
	.uleb128 0
	.uleb128 0
	.uleb128 .LEHB31-.LFB4495
	.uleb128 .LEHE31-.LEHB31
	.uleb128 .L833-.LFB4495
	.uleb128 0
	.uleb128 .LEHB32-.LFB4495
	.uleb128 .LEHE32-.LEHB32
	.uleb128 0
	.uleb128 0
	.uleb128 .LEHB33-.LFB4495
	.uleb128 .LEHE33-.LEHB33
	.uleb128 .L834-.LFB4495
	.uleb128 0
	.uleb128 .LEHB34-.LFB4495
	.uleb128 .LEHE34-.LEHB34
	.uleb128 0
	.uleb128 0
	.uleb128 .LEHB35-.LFB4495
	.uleb128 .LEHE35-.LEHB35
	.uleb128 .L835-.LFB4495
	.uleb128 0
	.uleb128 .LEHB36-.LFB4495
	.uleb128 .LEHE36-.LEHB36
	.uleb128 0
	.uleb128 0
	.uleb128 .LEHB37-.LFB4495
	.uleb128 .LEHE37-.LEHB37
	.uleb128 .L836-.LFB4495
	.uleb128 0
	.uleb128 .LEHB38-.LFB4495
	.uleb128 .LEHE38-.LEHB38
	.uleb128 0
	.uleb128 0
	.uleb128 .LEHB39-.LFB4495
	.uleb128 .LEHE39-.LEHB39
	.uleb128 .L862-.LFB4495
	.uleb128 0
	.uleb128 .LEHB40-.LFB4495
	.uleb128 .LEHE40-.LEHB40
	.uleb128 .L838-.LFB4495
	.uleb128 0
	.uleb128 .LEHB41-.LFB4495
	.uleb128 .LEHE41-.LEHB41
	.uleb128 0
	.uleb128 0
	.uleb128 .LEHB42-.LFB4495
	.uleb128 .LEHE42-.LEHB42
	.uleb128 .L862-.LFB4495
	.uleb128 0
	.uleb128 .LEHB43-.LFB4495
	.uleb128 .LEHE43-.LEHB43
	.uleb128 .L838-.LFB4495
	.uleb128 0
	.uleb128 .LEHB44-.LFB4495
	.uleb128 .LEHE44-.LEHB44
	.uleb128 0
	.uleb128 0
.LLSDACSE4495:
	.section	.text.startup
	.cfi_endproc
	.section	.text.unlikely
	.cfi_startproc
	.cfi_personality 0x9b,DW.ref.__gxx_personality_v0
	.cfi_lsda 0x1b,.LLSDAC4495
	.type	main.cold, @function
main.cold:
.LFSB4495:
.L820:
	.cfi_def_cfa 6, 16
	.cfi_offset 3, -56
	.cfi_offset 6, -16
	.cfi_offset 12, -48
	.cfi_offset 13, -40
	.cfi_offset 14, -32
	.cfi_offset 15, -24
	movq	-96(%rbp), %rdi
	cmpq	%rbx, %rdi
	je	.L821
	movq	-80(%rbp), %rax
	leaq	1(%rax), %rsi
	call	_ZdlPvm@PLT
.L821:
	movq	%r14, %rdi
.LEHB45:
	call	_Unwind_Resume@PLT
.LEHE45:
.L808:
	movq	-96(%rbp), %rdi
	leaq	-80(%rbp), %rax
	cmpq	%rax, %rdi
	je	.L826
	movq	-80(%rbp), %rax
	leaq	1(%rax), %rsi
	call	_ZdlPvm@PLT
	jmp	.L826
.L788:
.LEHB46:
	call	__cxa_throw_bad_array_new_length@PLT
.LEHE46:
.L822:
	movq	-160(%rbp), %rdi
	movq	-144(%rbp), %rsi
	subq	%rdi, %rsi
	testq	%rdi, %rdi
	je	.L824
	call	_ZdlPvm@PLT
.L824:
	movq	-192(%rbp), %rdi
	movq	-176(%rbp), %rsi
	subq	%rdi, %rsi
	testq	%rdi, %rdi
	je	.L825
	call	_ZdlPvm@PLT
.L825:
	movq	-224(%rbp), %rdi
	movq	-208(%rbp), %rsi
	subq	%rdi, %rsi
	testq	%rdi, %rdi
	je	.L826
	call	_ZdlPvm@PLT
.L826:
	movq	%rbx, %rdi
.LEHB47:
	call	_Unwind_Resume@PLT
.LEHE47:
.L837:
	endbr64
.L863:
	movq	%rax, %rbx
	jmp	.L824
.L864:
.LEHB48:
	call	__cxa_throw_bad_array_new_length@PLT
.LEHE48:
	.cfi_endproc
.LFE4495:
	.section	.gcc_except_table
.LLSDAC4495:
	.byte	0xff
	.byte	0xff
	.byte	0x1
	.uleb128 .LLSDACSEC4495-.LLSDACSBC4495
.LLSDACSBC4495:
	.uleb128 .LEHB45-.LCOLDB24
	.uleb128 .LEHE45-.LEHB45
	.uleb128 0
	.uleb128 0
	.uleb128 .LEHB46-.LCOLDB24
	.uleb128 .LEHE46-.LEHB46
	.uleb128 .L837-.LCOLDB24
	.uleb128 0
	.uleb128 .LEHB47-.LCOLDB24
	.uleb128 .LEHE47-.LEHB47
	.uleb128 0
	.uleb128 0
	.uleb128 .LEHB48-.LCOLDB24
	.uleb128 .LEHE48-.LEHB48
	.uleb128 .L837-.LCOLDB24
	.uleb128 0
.LLSDACSEC4495:
	.section	.text.unlikely
	.section	.text.startup
	.size	main, .-main
	.section	.text.unlikely
	.size	main.cold, .-main.cold
.LCOLDE24:
	.section	.text.startup
.LHOTE24:
	.p2align 4
	.type	_GLOBAL__sub_I__Z9write_pgmPKcRSt6vectorItSaItEEii, @function
_GLOBAL__sub_I__Z9write_pgmPKcRSt6vectorItSaItEEii:
.LFB5304:
	.cfi_startproc
	endbr64
	pushq	%rbp
	.cfi_def_cfa_offset 16
	.cfi_offset 6, -16
	leaq	_ZStL8__ioinit(%rip), %rbp
	movq	%rbp, %rdi
	call	_ZNSt8ios_base4InitC1Ev@PLT
	movq	_ZNSt8ios_base4InitD1Ev@GOTPCREL(%rip), %rdi
	movq	%rbp, %rsi
	popq	%rbp
	.cfi_def_cfa_offset 8
	leaq	__dso_handle(%rip), %rdx
	jmp	__cxa_atexit@PLT
	.cfi_endproc
.LFE5304:
	.size	_GLOBAL__sub_I__Z9write_pgmPKcRSt6vectorItSaItEEii, .-_GLOBAL__sub_I__Z9write_pgmPKcRSt6vectorItSaItEEii
	.section	.init_array,"aw"
	.align 8
	.quad	_GLOBAL__sub_I__Z9write_pgmPKcRSt6vectorItSaItEEii
	.weak	_ZTSN3MPI8DatatypeE
	.section	.rodata._ZTSN3MPI8DatatypeE,"aG",@progbits,_ZTSN3MPI8DatatypeE,comdat
	.align 16
	.type	_ZTSN3MPI8DatatypeE, @object
	.size	_ZTSN3MPI8DatatypeE, 16
_ZTSN3MPI8DatatypeE:
	.string	"N3MPI8DatatypeE"
	.weak	_ZTIN3MPI8DatatypeE
	.section	.data.rel.ro._ZTIN3MPI8DatatypeE,"awG",@progbits,_ZTIN3MPI8DatatypeE,comdat
	.align 8
	.type	_ZTIN3MPI8DatatypeE, @object
	.size	_ZTIN3MPI8DatatypeE, 16
_ZTIN3MPI8DatatypeE:
	.quad	_ZTVN10__cxxabiv117__class_type_infoE+16
	.quad	_ZTSN3MPI8DatatypeE
	.weak	_ZTSN3MPI2OpE
	.section	.rodata._ZTSN3MPI2OpE,"aG",@progbits,_ZTSN3MPI2OpE,comdat
	.align 8
	.type	_ZTSN3MPI2OpE, @object
	.size	_ZTSN3MPI2OpE, 10
_ZTSN3MPI2OpE:
	.string	"N3MPI2OpE"
	.weak	_ZTIN3MPI2OpE
	.section	.data.rel.ro._ZTIN3MPI2OpE,"awG",@progbits,_ZTIN3MPI2OpE,comdat
	.align 8
	.type	_ZTIN3MPI2OpE, @object
	.size	_ZTIN3MPI2OpE, 16
_ZTIN3MPI2OpE:
	.quad	_ZTVN10__cxxabiv117__class_type_infoE+16
	.quad	_ZTSN3MPI2OpE
	.weak	_ZTSN3MPI6StatusE
	.section	.rodata._ZTSN3MPI6StatusE,"aG",@progbits,_ZTSN3MPI6StatusE,comdat
	.align 8
	.type	_ZTSN3MPI6StatusE, @object
	.size	_ZTSN3MPI6StatusE, 14
_ZTSN3MPI6StatusE:
	.string	"N3MPI6StatusE"
	.weak	_ZTIN3MPI6StatusE
	.section	.data.rel.ro._ZTIN3MPI6StatusE,"awG",@progbits,_ZTIN3MPI6StatusE,comdat
	.align 8
	.type	_ZTIN3MPI6StatusE, @object
	.size	_ZTIN3MPI6StatusE, 16
_ZTIN3MPI6StatusE:
	.quad	_ZTVN10__cxxabiv117__class_type_infoE+16
	.quad	_ZTSN3MPI6StatusE
	.weak	_ZTSN3MPI7RequestE
	.section	.rodata._ZTSN3MPI7RequestE,"aG",@progbits,_ZTSN3MPI7RequestE,comdat
	.align 8
	.type	_ZTSN3MPI7RequestE, @object
	.size	_ZTSN3MPI7RequestE, 15
_ZTSN3MPI7RequestE:
	.string	"N3MPI7RequestE"
	.weak	_ZTIN3MPI7RequestE
	.section	.data.rel.ro._ZTIN3MPI7RequestE,"awG",@progbits,_ZTIN3MPI7RequestE,comdat
	.align 8
	.type	_ZTIN3MPI7RequestE, @object
	.size	_ZTIN3MPI7RequestE, 16
_ZTIN3MPI7RequestE:
	.quad	_ZTVN10__cxxabiv117__class_type_infoE+16
	.quad	_ZTSN3MPI7RequestE
	.weak	_ZTSN3MPI8PrequestE
	.section	.rodata._ZTSN3MPI8PrequestE,"aG",@progbits,_ZTSN3MPI8PrequestE,comdat
	.align 16
	.type	_ZTSN3MPI8PrequestE, @object
	.size	_ZTSN3MPI8PrequestE, 16
_ZTSN3MPI8PrequestE:
	.string	"N3MPI8PrequestE"
	.weak	_ZTIN3MPI8PrequestE
	.section	.data.rel.ro._ZTIN3MPI8PrequestE,"awG",@progbits,_ZTIN3MPI8PrequestE,comdat
	.align 8
	.type	_ZTIN3MPI8PrequestE, @object
	.size	_ZTIN3MPI8PrequestE, 24
_ZTIN3MPI8PrequestE:
	.quad	_ZTVN10__cxxabiv120__si_class_type_infoE+16
	.quad	_ZTSN3MPI8PrequestE
	.quad	_ZTIN3MPI7RequestE
	.weak	_ZTSN3MPI8GrequestE
	.section	.rodata._ZTSN3MPI8GrequestE,"aG",@progbits,_ZTSN3MPI8GrequestE,comdat
	.align 16
	.type	_ZTSN3MPI8GrequestE, @object
	.size	_ZTSN3MPI8GrequestE, 16
_ZTSN3MPI8GrequestE:
	.string	"N3MPI8GrequestE"
	.weak	_ZTIN3MPI8GrequestE
	.section	.data.rel.ro._ZTIN3MPI8GrequestE,"awG",@progbits,_ZTIN3MPI8GrequestE,comdat
	.align 8
	.type	_ZTIN3MPI8GrequestE, @object
	.size	_ZTIN3MPI8GrequestE, 24
_ZTIN3MPI8GrequestE:
	.quad	_ZTVN10__cxxabiv120__si_class_type_infoE+16
	.quad	_ZTSN3MPI8GrequestE
	.quad	_ZTIN3MPI7RequestE
	.weak	_ZTSN3MPI5GroupE
	.section	.rodata._ZTSN3MPI5GroupE,"aG",@progbits,_ZTSN3MPI5GroupE,comdat
	.align 8
	.type	_ZTSN3MPI5GroupE, @object
	.size	_ZTSN3MPI5GroupE, 13
_ZTSN3MPI5GroupE:
	.string	"N3MPI5GroupE"
	.weak	_ZTIN3MPI5GroupE
	.section	.data.rel.ro._ZTIN3MPI5GroupE,"awG",@progbits,_ZTIN3MPI5GroupE,comdat
	.align 8
	.type	_ZTIN3MPI5GroupE, @object
	.size	_ZTIN3MPI5GroupE, 16
_ZTIN3MPI5GroupE:
	.quad	_ZTVN10__cxxabiv117__class_type_infoE+16
	.quad	_ZTSN3MPI5GroupE
	.weak	_ZTSN3MPI9Comm_NullE
	.section	.rodata._ZTSN3MPI9Comm_NullE,"aG",@progbits,_ZTSN3MPI9Comm_NullE,comdat
	.align 16
	.type	_ZTSN3MPI9Comm_NullE, @object
	.size	_ZTSN3MPI9Comm_NullE, 17
_ZTSN3MPI9Comm_NullE:
	.string	"N3MPI9Comm_NullE"
	.weak	_ZTIN3MPI9Comm_NullE
	.section	.data.rel.ro._ZTIN3MPI9Comm_NullE,"awG",@progbits,_ZTIN3MPI9Comm_NullE,comdat
	.align 8
	.type	_ZTIN3MPI9Comm_NullE, @object
	.size	_ZTIN3MPI9Comm_NullE, 16
_ZTIN3MPI9Comm_NullE:
	.quad	_ZTVN10__cxxabiv117__class_type_infoE+16
	.quad	_ZTSN3MPI9Comm_NullE
	.weak	_ZTSN3MPI4CommE
	.section	.rodata._ZTSN3MPI4CommE,"aG",@progbits,_ZTSN3MPI4CommE,comdat
	.align 8
	.type	_ZTSN3MPI4CommE, @object
	.size	_ZTSN3MPI4CommE, 12
_ZTSN3MPI4CommE:
	.string	"N3MPI4CommE"
	.weak	_ZTIN3MPI4CommE
	.section	.data.rel.ro._ZTIN3MPI4CommE,"awG",@progbits,_ZTIN3MPI4CommE,comdat
	.align 8
	.type	_ZTIN3MPI4CommE, @object
	.size	_ZTIN3MPI4CommE, 24
_ZTIN3MPI4CommE:
	.quad	_ZTVN10__cxxabiv120__si_class_type_infoE+16
	.quad	_ZTSN3MPI4CommE
	.quad	_ZTIN3MPI9Comm_NullE
	.weak	_ZTSN3MPI3WinE
	.section	.rodata._ZTSN3MPI3WinE,"aG",@progbits,_ZTSN3MPI3WinE,comdat
	.align 8
	.type	_ZTSN3MPI3WinE, @object
	.size	_ZTSN3MPI3WinE, 11
_ZTSN3MPI3WinE:
	.string	"N3MPI3WinE"
	.weak	_ZTIN3MPI3WinE
	.section	.data.rel.ro._ZTIN3MPI3WinE,"awG",@progbits,_ZTIN3MPI3WinE,comdat
	.align 8
	.type	_ZTIN3MPI3WinE, @object
	.size	_ZTIN3MPI3WinE, 16
_ZTIN3MPI3WinE:
	.quad	_ZTVN10__cxxabiv117__class_type_infoE+16
	.quad	_ZTSN3MPI3WinE
	.weak	_ZTSN3MPI10ErrhandlerE
	.section	.rodata._ZTSN3MPI10ErrhandlerE,"aG",@progbits,_ZTSN3MPI10ErrhandlerE,comdat
	.align 16
	.type	_ZTSN3MPI10ErrhandlerE, @object
	.size	_ZTSN3MPI10ErrhandlerE, 19
_ZTSN3MPI10ErrhandlerE:
	.string	"N3MPI10ErrhandlerE"
	.weak	_ZTIN3MPI10ErrhandlerE
	.section	.data.rel.ro._ZTIN3MPI10ErrhandlerE,"awG",@progbits,_ZTIN3MPI10ErrhandlerE,comdat
	.align 8
	.type	_ZTIN3MPI10ErrhandlerE, @object
	.size	_ZTIN3MPI10ErrhandlerE, 16
_ZTIN3MPI10ErrhandlerE:
	.quad	_ZTVN10__cxxabiv117__class_type_infoE+16
	.quad	_ZTSN3MPI10ErrhandlerE
	.weak	_ZTSN3MPI9IntracommE
	.section	.rodata._ZTSN3MPI9IntracommE,"aG",@progbits,_ZTSN3MPI9IntracommE,comdat
	.align 16
	.type	_ZTSN3MPI9IntracommE, @object
	.size	_ZTSN3MPI9IntracommE, 17
_ZTSN3MPI9IntracommE:
	.string	"N3MPI9IntracommE"
	.weak	_ZTIN3MPI9IntracommE
	.section	.data.rel.ro._ZTIN3MPI9IntracommE,"awG",@progbits,_ZTIN3MPI9IntracommE,comdat
	.align 8
	.type	_ZTIN3MPI9IntracommE, @object
	.size	_ZTIN3MPI9IntracommE, 24
_ZTIN3MPI9IntracommE:
	.quad	_ZTVN10__cxxabiv120__si_class_type_infoE+16
	.quad	_ZTSN3MPI9IntracommE
	.quad	_ZTIN3MPI4CommE
	.weak	_ZTSN3MPI8CartcommE
	.section	.rodata._ZTSN3MPI8CartcommE,"aG",@progbits,_ZTSN3MPI8CartcommE,comdat
	.align 16
	.type	_ZTSN3MPI8CartcommE, @object
	.size	_ZTSN3MPI8CartcommE, 16
_ZTSN3MPI8CartcommE:
	.string	"N3MPI8CartcommE"
	.weak	_ZTIN3MPI8CartcommE
	.section	.data.rel.ro._ZTIN3MPI8CartcommE,"awG",@progbits,_ZTIN3MPI8CartcommE,comdat
	.align 8
	.type	_ZTIN3MPI8CartcommE, @object
	.size	_ZTIN3MPI8CartcommE, 24
_ZTIN3MPI8CartcommE:
	.quad	_ZTVN10__cxxabiv120__si_class_type_infoE+16
	.quad	_ZTSN3MPI8CartcommE
	.quad	_ZTIN3MPI9IntracommE
	.weak	_ZTSN3MPI9GraphcommE
	.section	.rodata._ZTSN3MPI9GraphcommE,"aG",@progbits,_ZTSN3MPI9GraphcommE,comdat
	.align 16
	.type	_ZTSN3MPI9GraphcommE, @object
	.size	_ZTSN3MPI9GraphcommE, 17
_ZTSN3MPI9GraphcommE:
	.string	"N3MPI9GraphcommE"
	.weak	_ZTIN3MPI9GraphcommE
	.section	.data.rel.ro._ZTIN3MPI9GraphcommE,"awG",@progbits,_ZTIN3MPI9GraphcommE,comdat
	.align 8
	.type	_ZTIN3MPI9GraphcommE, @object
	.size	_ZTIN3MPI9GraphcommE, 24
_ZTIN3MPI9GraphcommE:
	.quad	_ZTVN10__cxxabiv120__si_class_type_infoE+16
	.quad	_ZTSN3MPI9GraphcommE
	.quad	_ZTIN3MPI9IntracommE
	.weak	_ZTSN3MPI9IntercommE
	.section	.rodata._ZTSN3MPI9IntercommE,"aG",@progbits,_ZTSN3MPI9IntercommE,comdat
	.align 16
	.type	_ZTSN3MPI9IntercommE, @object
	.size	_ZTSN3MPI9IntercommE, 17
_ZTSN3MPI9IntercommE:
	.string	"N3MPI9IntercommE"
	.weak	_ZTIN3MPI9IntercommE
	.section	.data.rel.ro._ZTIN3MPI9IntercommE,"awG",@progbits,_ZTIN3MPI9IntercommE,comdat
	.align 8
	.type	_ZTIN3MPI9IntercommE, @object
	.size	_ZTIN3MPI9IntercommE, 24
_ZTIN3MPI9IntercommE:
	.quad	_ZTVN10__cxxabiv120__si_class_type_infoE+16
	.quad	_ZTSN3MPI9IntercommE
	.quad	_ZTIN3MPI4CommE
	.weak	_ZTSN3MPI4InfoE
	.section	.rodata._ZTSN3MPI4InfoE,"aG",@progbits,_ZTSN3MPI4InfoE,comdat
	.align 8
	.type	_ZTSN3MPI4InfoE, @object
	.size	_ZTSN3MPI4InfoE, 12
_ZTSN3MPI4InfoE:
	.string	"N3MPI4InfoE"
	.weak	_ZTIN3MPI4InfoE
	.section	.data.rel.ro._ZTIN3MPI4InfoE,"awG",@progbits,_ZTIN3MPI4InfoE,comdat
	.align 8
	.type	_ZTIN3MPI4InfoE, @object
	.size	_ZTIN3MPI4InfoE, 16
_ZTIN3MPI4InfoE:
	.quad	_ZTVN10__cxxabiv117__class_type_infoE+16
	.quad	_ZTSN3MPI4InfoE
	.weak	_ZTVN3MPI8DatatypeE
	.section	.data.rel.ro._ZTVN3MPI8DatatypeE,"awG",@progbits,_ZTVN3MPI8DatatypeE,comdat
	.align 8
	.type	_ZTVN3MPI8DatatypeE, @object
	.size	_ZTVN3MPI8DatatypeE, 256
_ZTVN3MPI8DatatypeE:
	.quad	0
	.quad	_ZTIN3MPI8DatatypeE
	.quad	_ZN3MPI8DatatypeD1Ev
	.quad	_ZN3MPI8DatatypeD0Ev
	.quad	_ZNK3MPI8Datatype17Create_contiguousEi
	.quad	_ZNK3MPI8Datatype13Create_vectorEiii
	.quad	_ZNK3MPI8Datatype14Create_indexedEiPKiS2_
	.quad	_ZNK3MPI8Datatype15Create_hindexedEiPKiPKl
	.quad	_ZNK3MPI8Datatype14Create_hvectorEiil
	.quad	_ZNK3MPI8Datatype20Create_indexed_blockEiiPKi
	.quad	_ZNK3MPI8Datatype14Create_resizedEll
	.quad	_ZNK3MPI8Datatype8Get_sizeEv
	.quad	_ZNK3MPI8Datatype10Get_extentERlS1_
	.quad	_ZNK3MPI8Datatype15Get_true_extentERlS1_
	.quad	_ZN3MPI8Datatype6CommitEv
	.quad	_ZN3MPI8Datatype4FreeEv
	.quad	_ZNK3MPI8Datatype4PackEPKviPviRiRKNS_4CommE
	.quad	_ZNK3MPI8Datatype6UnpackEPKviPviRiRKNS_4CommE
	.quad	_ZNK3MPI8Datatype9Pack_sizeEiRKNS_4CommE
	.quad	_ZNK3MPI8Datatype13Pack_externalEPKcPKviPvlRl
	.quad	_ZNK3MPI8Datatype18Pack_external_sizeEPKci
	.quad	_ZNK3MPI8Datatype15Unpack_externalEPKcPKvlRlPvi
	.quad	_ZNK3MPI8Datatype15Create_subarrayEiPKiS2_S2_i
	.quad	_ZNK3MPI8Datatype13Create_darrayEiiiPKiS2_S2_S2_i
	.quad	_ZNK3MPI8Datatype3DupEv
	.quad	_ZN3MPI8Datatype11Delete_attrEi
	.quad	_ZNK3MPI8Datatype8Get_attrEiPv
	.quad	_ZNK3MPI8Datatype12Get_contentsEiiiPiPlPS0_
	.quad	_ZNK3MPI8Datatype12Get_envelopeERiS1_S1_S1_
	.quad	_ZNK3MPI8Datatype8Get_nameEPcRi
	.quad	_ZN3MPI8Datatype8Set_attrEiPKv
	.quad	_ZN3MPI8Datatype8Set_nameEPKc
	.weak	_ZTVN3MPI7RequestE
	.section	.data.rel.ro.local._ZTVN3MPI7RequestE,"awG",@progbits,_ZTVN3MPI7RequestE,comdat
	.align 8
	.type	_ZTVN3MPI7RequestE, @object
	.size	_ZTVN3MPI7RequestE, 96
_ZTVN3MPI7RequestE:
	.quad	0
	.quad	_ZTIN3MPI7RequestE
	.quad	_ZN3MPI7RequestD1Ev
	.quad	_ZN3MPI7RequestD0Ev
	.quad	_ZN3MPI7Request4WaitERNS_6StatusE
	.quad	_ZN3MPI7Request4WaitEv
	.quad	_ZN3MPI7Request4TestERNS_6StatusE
	.quad	_ZN3MPI7Request4TestEv
	.quad	_ZN3MPI7Request4FreeEv
	.quad	_ZNK3MPI7Request6CancelEv
	.quad	_ZNK3MPI7Request10Get_statusERNS_6StatusE
	.quad	_ZNK3MPI7Request10Get_statusEv
	.weak	_ZTVN3MPI8PrequestE
	.section	.data.rel.ro.local._ZTVN3MPI8PrequestE,"awG",@progbits,_ZTVN3MPI8PrequestE,comdat
	.align 8
	.type	_ZTVN3MPI8PrequestE, @object
	.size	_ZTVN3MPI8PrequestE, 104
_ZTVN3MPI8PrequestE:
	.quad	0
	.quad	_ZTIN3MPI8PrequestE
	.quad	_ZN3MPI8PrequestD1Ev
	.quad	_ZN3MPI8PrequestD0Ev
	.quad	_ZN3MPI7Request4WaitERNS_6StatusE
	.quad	_ZN3MPI7Request4WaitEv
	.quad	_ZN3MPI7Request4TestERNS_6StatusE
	.quad	_ZN3MPI7Request4TestEv
	.quad	_ZN3MPI7Request4FreeEv
	.quad	_ZNK3MPI7Request6CancelEv
	.quad	_ZNK3MPI7Request10Get_statusERNS_6StatusE
	.quad	_ZNK3MPI7Request10Get_statusEv
	.quad	_ZN3MPI8Prequest5StartEv
	.weak	_ZTVN3MPI8GrequestE
	.section	.data.rel.ro.local._ZTVN3MPI8GrequestE,"awG",@progbits,_ZTVN3MPI8GrequestE,comdat
	.align 8
	.type	_ZTVN3MPI8GrequestE, @object
	.size	_ZTVN3MPI8GrequestE, 104
_ZTVN3MPI8GrequestE:
	.quad	0
	.quad	_ZTIN3MPI8GrequestE
	.quad	_ZN3MPI8GrequestD1Ev
	.quad	_ZN3MPI8GrequestD0Ev
	.quad	_ZN3MPI7Request4WaitERNS_6StatusE
	.quad	_ZN3MPI7Request4WaitEv
	.quad	_ZN3MPI7Request4TestERNS_6StatusE
	.quad	_ZN3MPI7Request4TestEv
	.quad	_ZN3MPI7Request4FreeEv
	.quad	_ZNK3MPI7Request6CancelEv
	.quad	_ZNK3MPI7Request10Get_statusERNS_6StatusE
	.quad	_ZNK3MPI7Request10Get_statusEv
	.quad	_ZN3MPI8Grequest8CompleteEv
	.weak	_ZTVN3MPI4CommE
	.section	.data.rel.ro._ZTVN3MPI4CommE,"awG",@progbits,_ZTVN3MPI4CommE,comdat
	.align 8
	.type	_ZTVN3MPI4CommE, @object
	.size	_ZTVN3MPI4CommE, 464
_ZTVN3MPI4CommE:
	.quad	0
	.quad	_ZTIN3MPI4CommE
	.quad	0
	.quad	0
	.quad	_ZNK3MPI4Comm4SendEPKviRKNS_8DatatypeEii
	.quad	_ZNK3MPI4Comm4RecvEPviRKNS_8DatatypeEiiRNS_6StatusE
	.quad	_ZNK3MPI4Comm4RecvEPviRKNS_8DatatypeEii
	.quad	_ZNK3MPI4Comm5BsendEPKviRKNS_8DatatypeEii
	.quad	_ZNK3MPI4Comm5SsendEPKviRKNS_8DatatypeEii
	.quad	_ZNK3MPI4Comm5RsendEPKviRKNS_8DatatypeEii
	.quad	_ZNK3MPI4Comm5IsendEPKviRKNS_8DatatypeEii
	.quad	_ZNK3MPI4Comm6IbsendEPKviRKNS_8DatatypeEii
	.quad	_ZNK3MPI4Comm6IssendEPKviRKNS_8DatatypeEii
	.quad	_ZNK3MPI4Comm6IrsendEPKviRKNS_8DatatypeEii
	.quad	_ZNK3MPI4Comm5IrecvEPviRKNS_8DatatypeEii
	.quad	_ZNK3MPI4Comm6IprobeEiiRNS_6StatusE
	.quad	_ZNK3MPI4Comm6IprobeEii
	.quad	_ZNK3MPI4Comm5ProbeEiiRNS_6StatusE
	.quad	_ZNK3MPI4Comm5ProbeEii
	.quad	_ZNK3MPI4Comm9Send_initEPKviRKNS_8DatatypeEii
	.quad	_ZNK3MPI4Comm10Bsend_initEPKviRKNS_8DatatypeEii
	.quad	_ZNK3MPI4Comm10Ssend_initEPKviRKNS_8DatatypeEii
	.quad	_ZNK3MPI4Comm10Rsend_initEPKviRKNS_8DatatypeEii
	.quad	_ZNK3MPI4Comm9Recv_initEPviRKNS_8DatatypeEii
	.quad	_ZNK3MPI4Comm8SendrecvEPKviRKNS_8DatatypeEiiPviS5_iiRNS_6StatusE
	.quad	_ZNK3MPI4Comm8SendrecvEPKviRKNS_8DatatypeEiiPviS5_ii
	.quad	_ZNK3MPI4Comm16Sendrecv_replaceEPviRKNS_8DatatypeEiiiiRNS_6StatusE
	.quad	_ZNK3MPI4Comm16Sendrecv_replaceEPviRKNS_8DatatypeEiiii
	.quad	_ZNK3MPI4Comm9Get_groupEv
	.quad	_ZNK3MPI4Comm8Get_sizeEv
	.quad	_ZNK3MPI4Comm8Get_rankEv
	.quad	__cxa_pure_virtual
	.quad	_ZN3MPI4Comm4FreeEv
	.quad	_ZNK3MPI4Comm8Is_interEv
	.quad	_ZNK3MPI4Comm7BarrierEv
	.quad	_ZNK3MPI4Comm5BcastEPviRKNS_8DatatypeEi
	.quad	_ZNK3MPI4Comm6GatherEPKviRKNS_8DatatypeEPviS5_i
	.quad	_ZNK3MPI4Comm7GathervEPKviRKNS_8DatatypeEPvPKiS8_S5_i
	.quad	_ZNK3MPI4Comm7ScatterEPKviRKNS_8DatatypeEPviS5_i
	.quad	_ZNK3MPI4Comm8ScattervEPKvPKiS4_RKNS_8DatatypeEPviS7_i
	.quad	_ZNK3MPI4Comm9AllgatherEPKviRKNS_8DatatypeEPviS5_
	.quad	_ZNK3MPI4Comm10AllgathervEPKviRKNS_8DatatypeEPvPKiS8_S5_
	.quad	_ZNK3MPI4Comm8AlltoallEPKviRKNS_8DatatypeEPviS5_
	.quad	_ZNK3MPI4Comm9AlltoallvEPKvPKiS4_RKNS_8DatatypeEPvS4_S4_S7_
	.quad	_ZNK3MPI4Comm9AlltoallwEPKvPKiS4_PKNS_8DatatypeEPvS4_S4_S7_
	.quad	_ZNK3MPI4Comm6ReduceEPKvPviRKNS_8DatatypeERKNS_2OpEi
	.quad	_ZNK3MPI4Comm9AllreduceEPKvPviRKNS_8DatatypeERKNS_2OpE
	.quad	_ZNK3MPI4Comm14Reduce_scatterEPKvPvPiRKNS_8DatatypeERKNS_2OpE
	.quad	_ZN3MPI4Comm10DisconnectEv
	.quad	_ZNK3MPI4Comm8Get_nameEPcRi
	.quad	_ZN3MPI4Comm8Set_nameEPKc
	.quad	_ZNK3MPI4Comm12Get_topologyEv
	.quad	_ZN3MPI4Comm5AbortEi
	.quad	_ZN3MPI4Comm14Set_errhandlerERKNS_10ErrhandlerE
	.quad	_ZNK3MPI4Comm14Get_errhandlerEv
	.quad	_ZNK3MPI4Comm8Set_attrEiPKv
	.quad	_ZNK3MPI4Comm8Get_attrEiPv
	.quad	_ZN3MPI4Comm11Delete_attrEi
	.weak	_ZTVN3MPI9IntracommE
	.section	.data.rel.ro.local._ZTVN3MPI9IntracommE,"awG",@progbits,_ZTVN3MPI9IntracommE,comdat
	.align 8
	.type	_ZTVN3MPI9IntracommE, @object
	.size	_ZTVN3MPI9IntracommE, 568
_ZTVN3MPI9IntracommE:
	.quad	0
	.quad	_ZTIN3MPI9IntracommE
	.quad	_ZN3MPI9IntracommD1Ev
	.quad	_ZN3MPI9IntracommD0Ev
	.quad	_ZNK3MPI4Comm4SendEPKviRKNS_8DatatypeEii
	.quad	_ZNK3MPI4Comm4RecvEPviRKNS_8DatatypeEiiRNS_6StatusE
	.quad	_ZNK3MPI4Comm4RecvEPviRKNS_8DatatypeEii
	.quad	_ZNK3MPI4Comm5BsendEPKviRKNS_8DatatypeEii
	.quad	_ZNK3MPI4Comm5SsendEPKviRKNS_8DatatypeEii
	.quad	_ZNK3MPI4Comm5RsendEPKviRKNS_8DatatypeEii
	.quad	_ZNK3MPI4Comm5IsendEPKviRKNS_8DatatypeEii
	.quad	_ZNK3MPI4Comm6IbsendEPKviRKNS_8DatatypeEii
	.quad	_ZNK3MPI4Comm6IssendEPKviRKNS_8DatatypeEii
	.quad	_ZNK3MPI4Comm6IrsendEPKviRKNS_8DatatypeEii
	.quad	_ZNK3MPI4Comm5IrecvEPviRKNS_8DatatypeEii
	.quad	_ZNK3MPI4Comm6IprobeEiiRNS_6StatusE
	.quad	_ZNK3MPI4Comm6IprobeEii
	.quad	_ZNK3MPI4Comm5ProbeEiiRNS_6StatusE
	.quad	_ZNK3MPI4Comm5ProbeEii
	.quad	_ZNK3MPI4Comm9Send_initEPKviRKNS_8DatatypeEii
	.quad	_ZNK3MPI4Comm10Bsend_initEPKviRKNS_8DatatypeEii
	.quad	_ZNK3MPI4Comm10Ssend_initEPKviRKNS_8DatatypeEii
	.quad	_ZNK3MPI4Comm10Rsend_initEPKviRKNS_8DatatypeEii
	.quad	_ZNK3MPI4Comm9Recv_initEPviRKNS_8DatatypeEii
	.quad	_ZNK3MPI4Comm8SendrecvEPKviRKNS_8DatatypeEiiPviS5_iiRNS_6StatusE
	.quad	_ZNK3MPI4Comm8SendrecvEPKviRKNS_8DatatypeEiiPviS5_ii
	.quad	_ZNK3MPI4Comm16Sendrecv_replaceEPviRKNS_8DatatypeEiiiiRNS_6StatusE
	.quad	_ZNK3MPI4Comm16Sendrecv_replaceEPviRKNS_8DatatypeEiiii
	.quad	_ZNK3MPI4Comm9Get_groupEv
	.quad	_ZNK3MPI4Comm8Get_sizeEv
	.quad	_ZNK3MPI4Comm8Get_rankEv
	.quad	_ZNK3MPI9Intracomm5CloneEv
	.quad	_ZN3MPI4Comm4FreeEv
	.quad	_ZNK3MPI4Comm8Is_interEv
	.quad	_ZNK3MPI4Comm7BarrierEv
	.quad	_ZNK3MPI4Comm5BcastEPviRKNS_8DatatypeEi
	.quad	_ZNK3MPI4Comm6GatherEPKviRKNS_8DatatypeEPviS5_i
	.quad	_ZNK3MPI4Comm7GathervEPKviRKNS_8DatatypeEPvPKiS8_S5_i
	.quad	_ZNK3MPI4Comm7ScatterEPKviRKNS_8DatatypeEPviS5_i
	.quad	_ZNK3MPI4Comm8ScattervEPKvPKiS4_RKNS_8DatatypeEPviS7_i
	.quad	_ZNK3MPI4Comm9AllgatherEPKviRKNS_8DatatypeEPviS5_
	.quad	_ZNK3MPI4Comm10AllgathervEPKviRKNS_8DatatypeEPvPKiS8_S5_
	.quad	_ZNK3MPI4Comm8AlltoallEPKviRKNS_8DatatypeEPviS5_
	.quad	_ZNK3MPI4Comm9AlltoallvEPKvPKiS4_RKNS_8DatatypeEPvS4_S4_S7_
	.quad	_ZNK3MPI4Comm9AlltoallwEPKvPKiS4_PKNS_8DatatypeEPvS4_S4_S7_
	.quad	_ZNK3MPI4Comm6ReduceEPKvPviRKNS_8DatatypeERKNS_2OpEi
	.quad	_ZNK3MPI4Comm9AllreduceEPKvPviRKNS_8DatatypeERKNS_2OpE
	.quad	_ZNK3MPI4Comm14Reduce_scatterEPKvPvPiRKNS_8DatatypeERKNS_2OpE
	.quad	_ZN3MPI4Comm10DisconnectEv
	.quad	_ZNK3MPI4Comm8Get_nameEPcRi
	.quad	_ZN3MPI4Comm8Set_nameEPKc
	.quad	_ZNK3MPI4Comm12Get_topologyEv
	.quad	_ZN3MPI4Comm5AbortEi
	.quad	_ZN3MPI4Comm14Set_errhandlerERKNS_10ErrhandlerE
	.quad	_ZNK3MPI4Comm14Get_errhandlerEv
	.quad	_ZNK3MPI4Comm8Set_attrEiPKv
	.quad	_ZNK3MPI4Comm8Get_attrEiPv
	.quad	_ZN3MPI4Comm11Delete_attrEi
	.quad	_ZNK3MPI9Intracomm4ScanEPKvPviRKNS_8DatatypeERKNS_2OpE
	.quad	_ZNK3MPI9Intracomm6ExscanEPKvPviRKNS_8DatatypeERKNS_2OpE
	.quad	_ZNK3MPI9Intracomm6CreateERKNS_5GroupE
	.quad	_ZNK3MPI9Intracomm5SplitEii
	.quad	_ZNK3MPI9Intracomm16Create_intercommEiRKNS_4CommEii
	.quad	_ZNK3MPI9Intracomm11Create_cartEiPKiPKbb
	.quad	_ZNK3MPI9Intracomm12Create_graphEiPKiS2_b
	.quad	_ZNK3MPI9Intracomm6AcceptEPKcRKNS_4InfoEi
	.quad	_ZNK3MPI9Intracomm7ConnectEPKcRKNS_4InfoEi
	.quad	_ZNK3MPI9Intracomm5SpawnEPKcPS2_iRKNS_4InfoEi
	.quad	_ZNK3MPI9Intracomm5SpawnEPKcPS2_iRKNS_4InfoEiPi
	.quad	_ZN3MPI9Intracomm14Spawn_multipleEiPPKcPS3_PKiPKNS_4InfoEi
	.quad	_ZN3MPI9Intracomm14Spawn_multipleEiPPKcPS3_PKiPKNS_4InfoEiPi
	.weak	_ZTVN3MPI8CartcommE
	.section	.data.rel.ro.local._ZTVN3MPI8CartcommE,"awG",@progbits,_ZTVN3MPI8CartcommE,comdat
	.align 8
	.type	_ZTVN3MPI8CartcommE, @object
	.size	_ZTVN3MPI8CartcommE, 624
_ZTVN3MPI8CartcommE:
	.quad	0
	.quad	_ZTIN3MPI8CartcommE
	.quad	_ZN3MPI8CartcommD1Ev
	.quad	_ZN3MPI8CartcommD0Ev
	.quad	_ZNK3MPI4Comm4SendEPKviRKNS_8DatatypeEii
	.quad	_ZNK3MPI4Comm4RecvEPviRKNS_8DatatypeEiiRNS_6StatusE
	.quad	_ZNK3MPI4Comm4RecvEPviRKNS_8DatatypeEii
	.quad	_ZNK3MPI4Comm5BsendEPKviRKNS_8DatatypeEii
	.quad	_ZNK3MPI4Comm5SsendEPKviRKNS_8DatatypeEii
	.quad	_ZNK3MPI4Comm5RsendEPKviRKNS_8DatatypeEii
	.quad	_ZNK3MPI4Comm5IsendEPKviRKNS_8DatatypeEii
	.quad	_ZNK3MPI4Comm6IbsendEPKviRKNS_8DatatypeEii
	.quad	_ZNK3MPI4Comm6IssendEPKviRKNS_8DatatypeEii
	.quad	_ZNK3MPI4Comm6IrsendEPKviRKNS_8DatatypeEii
	.quad	_ZNK3MPI4Comm5IrecvEPviRKNS_8DatatypeEii
	.quad	_ZNK3MPI4Comm6IprobeEiiRNS_6StatusE
	.quad	_ZNK3MPI4Comm6IprobeEii
	.quad	_ZNK3MPI4Comm5ProbeEiiRNS_6StatusE
	.quad	_ZNK3MPI4Comm5ProbeEii
	.quad	_ZNK3MPI4Comm9Send_initEPKviRKNS_8DatatypeEii
	.quad	_ZNK3MPI4Comm10Bsend_initEPKviRKNS_8DatatypeEii
	.quad	_ZNK3MPI4Comm10Ssend_initEPKviRKNS_8DatatypeEii
	.quad	_ZNK3MPI4Comm10Rsend_initEPKviRKNS_8DatatypeEii
	.quad	_ZNK3MPI4Comm9Recv_initEPviRKNS_8DatatypeEii
	.quad	_ZNK3MPI4Comm8SendrecvEPKviRKNS_8DatatypeEiiPviS5_iiRNS_6StatusE
	.quad	_ZNK3MPI4Comm8SendrecvEPKviRKNS_8DatatypeEiiPviS5_ii
	.quad	_ZNK3MPI4Comm16Sendrecv_replaceEPviRKNS_8DatatypeEiiiiRNS_6StatusE
	.quad	_ZNK3MPI4Comm16Sendrecv_replaceEPviRKNS_8DatatypeEiiii
	.quad	_ZNK3MPI4Comm9Get_groupEv
	.quad	_ZNK3MPI4Comm8Get_sizeEv
	.quad	_ZNK3MPI4Comm8Get_rankEv
	.quad	_ZNK3MPI8Cartcomm5CloneEv
	.quad	_ZN3MPI4Comm4FreeEv
	.quad	_ZNK3MPI4Comm8Is_interEv
	.quad	_ZNK3MPI4Comm7BarrierEv
	.quad	_ZNK3MPI4Comm5BcastEPviRKNS_8DatatypeEi
	.quad	_ZNK3MPI4Comm6GatherEPKviRKNS_8DatatypeEPviS5_i
	.quad	_ZNK3MPI4Comm7GathervEPKviRKNS_8DatatypeEPvPKiS8_S5_i
	.quad	_ZNK3MPI4Comm7ScatterEPKviRKNS_8DatatypeEPviS5_i
	.quad	_ZNK3MPI4Comm8ScattervEPKvPKiS4_RKNS_8DatatypeEPviS7_i
	.quad	_ZNK3MPI4Comm9AllgatherEPKviRKNS_8DatatypeEPviS5_
	.quad	_ZNK3MPI4Comm10AllgathervEPKviRKNS_8DatatypeEPvPKiS8_S5_
	.quad	_ZNK3MPI4Comm8AlltoallEPKviRKNS_8DatatypeEPviS5_
	.quad	_ZNK3MPI4Comm9AlltoallvEPKvPKiS4_RKNS_8DatatypeEPvS4_S4_S7_
	.quad	_ZNK3MPI4Comm9AlltoallwEPKvPKiS4_PKNS_8DatatypeEPvS4_S4_S7_
	.quad	_ZNK3MPI4Comm6ReduceEPKvPviRKNS_8DatatypeERKNS_2OpEi
	.quad	_ZNK3MPI4Comm9AllreduceEPKvPviRKNS_8DatatypeERKNS_2OpE
	.quad	_ZNK3MPI4Comm14Reduce_scatterEPKvPvPiRKNS_8DatatypeERKNS_2OpE
	.quad	_ZN3MPI4Comm10DisconnectEv
	.quad	_ZNK3MPI4Comm8Get_nameEPcRi
	.quad	_ZN3MPI4Comm8Set_nameEPKc
	.quad	_ZNK3MPI4Comm12Get_topologyEv
	.quad	_ZN3MPI4Comm5AbortEi
	.quad	_ZN3MPI4Comm14Set_errhandlerERKNS_10ErrhandlerE
	.quad	_ZNK3MPI4Comm14Get_errhandlerEv
	.quad	_ZNK3MPI4Comm8Set_attrEiPKv
	.quad	_ZNK3MPI4Comm8Get_attrEiPv
	.quad	_ZN3MPI4Comm11Delete_attrEi
	.quad	_ZNK3MPI9Intracomm4ScanEPKvPviRKNS_8DatatypeERKNS_2OpE
	.quad	_ZNK3MPI9Intracomm6ExscanEPKvPviRKNS_8DatatypeERKNS_2OpE
	.quad	_ZNK3MPI9Intracomm6CreateERKNS_5GroupE
	.quad	_ZNK3MPI9Intracomm5SplitEii
	.quad	_ZNK3MPI9Intracomm16Create_intercommEiRKNS_4CommEii
	.quad	_ZNK3MPI9Intracomm11Create_cartEiPKiPKbb
	.quad	_ZNK3MPI9Intracomm12Create_graphEiPKiS2_b
	.quad	_ZNK3MPI9Intracomm6AcceptEPKcRKNS_4InfoEi
	.quad	_ZNK3MPI9Intracomm7ConnectEPKcRKNS_4InfoEi
	.quad	_ZNK3MPI9Intracomm5SpawnEPKcPS2_iRKNS_4InfoEi
	.quad	_ZNK3MPI9Intracomm5SpawnEPKcPS2_iRKNS_4InfoEiPi
	.quad	_ZN3MPI9Intracomm14Spawn_multipleEiPPKcPS3_PKiPKNS_4InfoEi
	.quad	_ZN3MPI9Intracomm14Spawn_multipleEiPPKcPS3_PKiPKNS_4InfoEiPi
	.quad	_ZNK3MPI8Cartcomm7Get_dimEv
	.quad	_ZNK3MPI8Cartcomm8Get_topoEiPiPbS1_
	.quad	_ZNK3MPI8Cartcomm13Get_cart_rankEPKi
	.quad	_ZNK3MPI8Cartcomm10Get_coordsEiiPi
	.quad	_ZNK3MPI8Cartcomm5ShiftEiiRiS1_
	.quad	_ZNK3MPI8Cartcomm3SubEPKb
	.quad	_ZNK3MPI8Cartcomm3MapEiPKiPKb
	.weak	_ZTVN3MPI9GraphcommE
	.section	.data.rel.ro.local._ZTVN3MPI9GraphcommE,"awG",@progbits,_ZTVN3MPI9GraphcommE,comdat
	.align 8
	.type	_ZTVN3MPI9GraphcommE, @object
	.size	_ZTVN3MPI9GraphcommE, 608
_ZTVN3MPI9GraphcommE:
	.quad	0
	.quad	_ZTIN3MPI9GraphcommE
	.quad	_ZN3MPI9GraphcommD1Ev
	.quad	_ZN3MPI9GraphcommD0Ev
	.quad	_ZNK3MPI4Comm4SendEPKviRKNS_8DatatypeEii
	.quad	_ZNK3MPI4Comm4RecvEPviRKNS_8DatatypeEiiRNS_6StatusE
	.quad	_ZNK3MPI4Comm4RecvEPviRKNS_8DatatypeEii
	.quad	_ZNK3MPI4Comm5BsendEPKviRKNS_8DatatypeEii
	.quad	_ZNK3MPI4Comm5SsendEPKviRKNS_8DatatypeEii
	.quad	_ZNK3MPI4Comm5RsendEPKviRKNS_8DatatypeEii
	.quad	_ZNK3MPI4Comm5IsendEPKviRKNS_8DatatypeEii
	.quad	_ZNK3MPI4Comm6IbsendEPKviRKNS_8DatatypeEii
	.quad	_ZNK3MPI4Comm6IssendEPKviRKNS_8DatatypeEii
	.quad	_ZNK3MPI4Comm6IrsendEPKviRKNS_8DatatypeEii
	.quad	_ZNK3MPI4Comm5IrecvEPviRKNS_8DatatypeEii
	.quad	_ZNK3MPI4Comm6IprobeEiiRNS_6StatusE
	.quad	_ZNK3MPI4Comm6IprobeEii
	.quad	_ZNK3MPI4Comm5ProbeEiiRNS_6StatusE
	.quad	_ZNK3MPI4Comm5ProbeEii
	.quad	_ZNK3MPI4Comm9Send_initEPKviRKNS_8DatatypeEii
	.quad	_ZNK3MPI4Comm10Bsend_initEPKviRKNS_8DatatypeEii
	.quad	_ZNK3MPI4Comm10Ssend_initEPKviRKNS_8DatatypeEii
	.quad	_ZNK3MPI4Comm10Rsend_initEPKviRKNS_8DatatypeEii
	.quad	_ZNK3MPI4Comm9Recv_initEPviRKNS_8DatatypeEii
	.quad	_ZNK3MPI4Comm8SendrecvEPKviRKNS_8DatatypeEiiPviS5_iiRNS_6StatusE
	.quad	_ZNK3MPI4Comm8SendrecvEPKviRKNS_8DatatypeEiiPviS5_ii
	.quad	_ZNK3MPI4Comm16Sendrecv_replaceEPviRKNS_8DatatypeEiiiiRNS_6StatusE
	.quad	_ZNK3MPI4Comm16Sendrecv_replaceEPviRKNS_8DatatypeEiiii
	.quad	_ZNK3MPI4Comm9Get_groupEv
	.quad	_ZNK3MPI4Comm8Get_sizeEv
	.quad	_ZNK3MPI4Comm8Get_rankEv
	.quad	_ZNK3MPI9Graphcomm5CloneEv
	.quad	_ZN3MPI4Comm4FreeEv
	.quad	_ZNK3MPI4Comm8Is_interEv
	.quad	_ZNK3MPI4Comm7BarrierEv
	.quad	_ZNK3MPI4Comm5BcastEPviRKNS_8DatatypeEi
	.quad	_ZNK3MPI4Comm6GatherEPKviRKNS_8DatatypeEPviS5_i
	.quad	_ZNK3MPI4Comm7GathervEPKviRKNS_8DatatypeEPvPKiS8_S5_i
	.quad	_ZNK3MPI4Comm7ScatterEPKviRKNS_8DatatypeEPviS5_i
	.quad	_ZNK3MPI4Comm8ScattervEPKvPKiS4_RKNS_8DatatypeEPviS7_i
	.quad	_ZNK3MPI4Comm9AllgatherEPKviRKNS_8DatatypeEPviS5_
	.quad	_ZNK3MPI4Comm10AllgathervEPKviRKNS_8DatatypeEPvPKiS8_S5_
	.quad	_ZNK3MPI4Comm8AlltoallEPKviRKNS_8DatatypeEPviS5_
	.quad	_ZNK3MPI4Comm9AlltoallvEPKvPKiS4_RKNS_8DatatypeEPvS4_S4_S7_
	.quad	_ZNK3MPI4Comm9AlltoallwEPKvPKiS4_PKNS_8DatatypeEPvS4_S4_S7_
	.quad	_ZNK3MPI4Comm6ReduceEPKvPviRKNS_8DatatypeERKNS_2OpEi
	.quad	_ZNK3MPI4Comm9AllreduceEPKvPviRKNS_8DatatypeERKNS_2OpE
	.quad	_ZNK3MPI4Comm14Reduce_scatterEPKvPvPiRKNS_8DatatypeERKNS_2OpE
	.quad	_ZN3MPI4Comm10DisconnectEv
	.quad	_ZNK3MPI4Comm8Get_nameEPcRi
	.quad	_ZN3MPI4Comm8Set_nameEPKc
	.quad	_ZNK3MPI4Comm12Get_topologyEv
	.quad	_ZN3MPI4Comm5AbortEi
	.quad	_ZN3MPI4Comm14Set_errhandlerERKNS_10ErrhandlerE
	.quad	_ZNK3MPI4Comm14Get_errhandlerEv
	.quad	_ZNK3MPI4Comm8Set_attrEiPKv
	.quad	_ZNK3MPI4Comm8Get_attrEiPv
	.quad	_ZN3MPI4Comm11Delete_attrEi
	.quad	_ZNK3MPI9Intracomm4ScanEPKvPviRKNS_8DatatypeERKNS_2OpE
	.quad	_ZNK3MPI9Intracomm6ExscanEPKvPviRKNS_8DatatypeERKNS_2OpE
	.quad	_ZNK3MPI9Intracomm6CreateERKNS_5GroupE
	.quad	_ZNK3MPI9Intracomm5SplitEii
	.quad	_ZNK3MPI9Intracomm16Create_intercommEiRKNS_4CommEii
	.quad	_ZNK3MPI9Intracomm11Create_cartEiPKiPKbb
	.quad	_ZNK3MPI9Intracomm12Create_graphEiPKiS2_b
	.quad	_ZNK3MPI9Intracomm6AcceptEPKcRKNS_4InfoEi
	.quad	_ZNK3MPI9Intracomm7ConnectEPKcRKNS_4InfoEi
	.quad	_ZNK3MPI9Intracomm5SpawnEPKcPS2_iRKNS_4InfoEi
	.quad	_ZNK3MPI9Intracomm5SpawnEPKcPS2_iRKNS_4InfoEiPi
	.quad	_ZN3MPI9Intracomm14Spawn_multipleEiPPKcPS3_PKiPKNS_4InfoEi
	.quad	_ZN3MPI9Intracomm14Spawn_multipleEiPPKcPS3_PKiPKNS_4InfoEiPi
	.quad	_ZNK3MPI9Graphcomm8Get_dimsEPiS1_
	.quad	_ZNK3MPI9Graphcomm8Get_topoEiiPiS1_
	.quad	_ZNK3MPI9Graphcomm19Get_neighbors_countEi
	.quad	_ZNK3MPI9Graphcomm13Get_neighborsEiiPi
	.quad	_ZNK3MPI9Graphcomm3MapEiPKiS2_
	.weak	_ZTVN3MPI9IntercommE
	.section	.data.rel.ro.local._ZTVN3MPI9IntercommE,"awG",@progbits,_ZTVN3MPI9IntercommE,comdat
	.align 8
	.type	_ZTVN3MPI9IntercommE, @object
	.size	_ZTVN3MPI9IntercommE, 504
_ZTVN3MPI9IntercommE:
	.quad	0
	.quad	_ZTIN3MPI9IntercommE
	.quad	_ZN3MPI9IntercommD1Ev
	.quad	_ZN3MPI9IntercommD0Ev
	.quad	_ZNK3MPI4Comm4SendEPKviRKNS_8DatatypeEii
	.quad	_ZNK3MPI4Comm4RecvEPviRKNS_8DatatypeEiiRNS_6StatusE
	.quad	_ZNK3MPI4Comm4RecvEPviRKNS_8DatatypeEii
	.quad	_ZNK3MPI4Comm5BsendEPKviRKNS_8DatatypeEii
	.quad	_ZNK3MPI4Comm5SsendEPKviRKNS_8DatatypeEii
	.quad	_ZNK3MPI4Comm5RsendEPKviRKNS_8DatatypeEii
	.quad	_ZNK3MPI4Comm5IsendEPKviRKNS_8DatatypeEii
	.quad	_ZNK3MPI4Comm6IbsendEPKviRKNS_8DatatypeEii
	.quad	_ZNK3MPI4Comm6IssendEPKviRKNS_8DatatypeEii
	.quad	_ZNK3MPI4Comm6IrsendEPKviRKNS_8DatatypeEii
	.quad	_ZNK3MPI4Comm5IrecvEPviRKNS_8DatatypeEii
	.quad	_ZNK3MPI4Comm6IprobeEiiRNS_6StatusE
	.quad	_ZNK3MPI4Comm6IprobeEii
	.quad	_ZNK3MPI4Comm5ProbeEiiRNS_6StatusE
	.quad	_ZNK3MPI4Comm5ProbeEii
	.quad	_ZNK3MPI4Comm9Send_initEPKviRKNS_8DatatypeEii
	.quad	_ZNK3MPI4Comm10Bsend_initEPKviRKNS_8DatatypeEii
	.quad	_ZNK3MPI4Comm10Ssend_initEPKviRKNS_8DatatypeEii
	.quad	_ZNK3MPI4Comm10Rsend_initEPKviRKNS_8DatatypeEii
	.quad	_ZNK3MPI4Comm9Recv_initEPviRKNS_8DatatypeEii
	.quad	_ZNK3MPI4Comm8SendrecvEPKviRKNS_8DatatypeEiiPviS5_iiRNS_6StatusE
	.quad	_ZNK3MPI4Comm8SendrecvEPKviRKNS_8DatatypeEiiPviS5_ii
	.quad	_ZNK3MPI4Comm16Sendrecv_replaceEPviRKNS_8DatatypeEiiiiRNS_6StatusE
	.quad	_ZNK3MPI4Comm16Sendrecv_replaceEPviRKNS_8DatatypeEiiii
	.quad	_ZNK3MPI4Comm9Get_groupEv
	.quad	_ZNK3MPI4Comm8Get_sizeEv
	.quad	_ZNK3MPI4Comm8Get_rankEv
	.quad	_ZNK3MPI9Intercomm5CloneEv
	.quad	_ZN3MPI4Comm4FreeEv
	.quad	_ZNK3MPI4Comm8Is_interEv
	.quad	_ZNK3MPI4Comm7BarrierEv
	.quad	_ZNK3MPI4Comm5BcastEPviRKNS_8DatatypeEi
	.quad	_ZNK3MPI4Comm6GatherEPKviRKNS_8DatatypeEPviS5_i
	.quad	_ZNK3MPI4Comm7GathervEPKviRKNS_8DatatypeEPvPKiS8_S5_i
	.quad	_ZNK3MPI4Comm7ScatterEPKviRKNS_8DatatypeEPviS5_i
	.quad	_ZNK3MPI4Comm8ScattervEPKvPKiS4_RKNS_8DatatypeEPviS7_i
	.quad	_ZNK3MPI4Comm9AllgatherEPKviRKNS_8DatatypeEPviS5_
	.quad	_ZNK3MPI4Comm10AllgathervEPKviRKNS_8DatatypeEPvPKiS8_S5_
	.quad	_ZNK3MPI4Comm8AlltoallEPKviRKNS_8DatatypeEPviS5_
	.quad	_ZNK3MPI4Comm9AlltoallvEPKvPKiS4_RKNS_8DatatypeEPvS4_S4_S7_
	.quad	_ZNK3MPI4Comm9AlltoallwEPKvPKiS4_PKNS_8DatatypeEPvS4_S4_S7_
	.quad	_ZNK3MPI4Comm6ReduceEPKvPviRKNS_8DatatypeERKNS_2OpEi
	.quad	_ZNK3MPI4Comm9AllreduceEPKvPviRKNS_8DatatypeERKNS_2OpE
	.quad	_ZNK3MPI4Comm14Reduce_scatterEPKvPvPiRKNS_8DatatypeERKNS_2OpE
	.quad	_ZN3MPI4Comm10DisconnectEv
	.quad	_ZNK3MPI4Comm8Get_nameEPcRi
	.quad	_ZN3MPI4Comm8Set_nameEPKc
	.quad	_ZNK3MPI4Comm12Get_topologyEv
	.quad	_ZN3MPI4Comm5AbortEi
	.quad	_ZN3MPI4Comm14Set_errhandlerERKNS_10ErrhandlerE
	.quad	_ZNK3MPI4Comm14Get_errhandlerEv
	.quad	_ZNK3MPI4Comm8Set_attrEiPKv
	.quad	_ZNK3MPI4Comm8Get_attrEiPv
	.quad	_ZN3MPI4Comm11Delete_attrEi
	.quad	_ZNK3MPI9Intercomm15Get_remote_sizeEv
	.quad	_ZNK3MPI9Intercomm16Get_remote_groupEv
	.quad	_ZNK3MPI9Intercomm5MergeEb
	.quad	_ZNK3MPI9Intercomm6CreateERKNS_5GroupE
	.quad	_ZNK3MPI9Intercomm5SplitEii
	.weak	_ZTVN3MPI5GroupE
	.section	.data.rel.ro.local._ZTVN3MPI5GroupE,"awG",@progbits,_ZTVN3MPI5GroupE,comdat
	.align 8
	.type	_ZTVN3MPI5GroupE, @object
	.size	_ZTVN3MPI5GroupE, 88
_ZTVN3MPI5GroupE:
	.quad	0
	.quad	_ZTIN3MPI5GroupE
	.quad	_ZN3MPI5GroupD1Ev
	.quad	_ZN3MPI5GroupD0Ev
	.quad	_ZNK3MPI5Group8Get_sizeEv
	.quad	_ZNK3MPI5Group8Get_rankEv
	.quad	_ZNK3MPI5Group4InclEiPKi
	.quad	_ZNK3MPI5Group4ExclEiPKi
	.quad	_ZNK3MPI5Group10Range_inclEiPA3_Ki
	.quad	_ZNK3MPI5Group10Range_exclEiPA3_Ki
	.quad	_ZN3MPI5Group4FreeEv
	.weak	_ZTVN3MPI2OpE
	.section	.data.rel.ro.local._ZTVN3MPI2OpE,"awG",@progbits,_ZTVN3MPI2OpE,comdat
	.align 8
	.type	_ZTVN3MPI2OpE, @object
	.size	_ZTVN3MPI2OpE, 64
_ZTVN3MPI2OpE:
	.quad	0
	.quad	_ZTIN3MPI2OpE
	.quad	_ZN3MPI2OpD1Ev
	.quad	_ZN3MPI2OpD0Ev
	.quad	_ZN3MPI2Op4InitEPFvPKvPviRKNS_8DatatypeEEb
	.quad	_ZN3MPI2Op4FreeEv
	.quad	_ZNK3MPI2Op12Reduce_localEPKvPviRKNS_8DatatypeE
	.quad	_ZNK3MPI2Op14Is_commutativeEv
	.weak	_ZTVN3MPI10ErrhandlerE
	.section	.data.rel.ro.local._ZTVN3MPI10ErrhandlerE,"awG",@progbits,_ZTVN3MPI10ErrhandlerE,comdat
	.align 8
	.type	_ZTVN3MPI10ErrhandlerE, @object
	.size	_ZTVN3MPI10ErrhandlerE, 40
_ZTVN3MPI10ErrhandlerE:
	.quad	0
	.quad	_ZTIN3MPI10ErrhandlerE
	.quad	_ZN3MPI10ErrhandlerD1Ev
	.quad	_ZN3MPI10ErrhandlerD0Ev
	.quad	_ZN3MPI10Errhandler4FreeEv
	.weak	_ZTVN3MPI6StatusE
	.section	.data.rel.ro.local._ZTVN3MPI6StatusE,"awG",@progbits,_ZTVN3MPI6StatusE,comdat
	.align 8
	.type	_ZTVN3MPI6StatusE, @object
	.size	_ZTVN3MPI6StatusE, 120
_ZTVN3MPI6StatusE:
	.quad	0
	.quad	_ZTIN3MPI6StatusE
	.quad	_ZN3MPI6StatusD1Ev
	.quad	_ZN3MPI6StatusD0Ev
	.quad	_ZNK3MPI6Status9Get_countERKNS_8DatatypeE
	.quad	_ZNK3MPI6Status12Is_cancelledEv
	.quad	_ZNK3MPI6Status12Get_elementsERKNS_8DatatypeE
	.quad	_ZNK3MPI6Status10Get_sourceEv
	.quad	_ZN3MPI6Status10Set_sourceEi
	.quad	_ZNK3MPI6Status7Get_tagEv
	.quad	_ZN3MPI6Status7Set_tagEi
	.quad	_ZNK3MPI6Status9Get_errorEv
	.quad	_ZN3MPI6Status9Set_errorEi
	.quad	_ZN3MPI6Status12Set_elementsERKNS_8DatatypeEi
	.quad	_ZN3MPI6Status13Set_cancelledEb
	.weak	_ZTVN3MPI4InfoE
	.section	.data.rel.ro.local._ZTVN3MPI4InfoE,"awG",@progbits,_ZTVN3MPI4InfoE,comdat
	.align 8
	.type	_ZTVN3MPI4InfoE, @object
	.size	_ZTVN3MPI4InfoE, 96
_ZTVN3MPI4InfoE:
	.quad	0
	.quad	_ZTIN3MPI4InfoE
	.quad	_ZN3MPI4InfoD1Ev
	.quad	_ZN3MPI4InfoD0Ev
	.quad	_ZN3MPI4Info6DeleteEPKc
	.quad	_ZNK3MPI4Info3DupEv
	.quad	_ZN3MPI4Info4FreeEv
	.quad	_ZNK3MPI4Info3GetEPKciPc
	.quad	_ZNK3MPI4Info9Get_nkeysEv
	.quad	_ZNK3MPI4Info10Get_nthkeyEiPc
	.quad	_ZNK3MPI4Info12Get_valuelenEPKcRi
	.quad	_ZN3MPI4Info3SetEPKcS2_
	.weak	_ZTVN3MPI3WinE
	.section	.data.rel.ro._ZTVN3MPI3WinE,"awG",@progbits,_ZTVN3MPI3WinE,comdat
	.align 8
	.type	_ZTVN3MPI3WinE, @object
	.size	_ZTVN3MPI3WinE, 192
_ZTVN3MPI3WinE:
	.quad	0
	.quad	_ZTIN3MPI3WinE
	.quad	_ZN3MPI3WinD1Ev
	.quad	_ZN3MPI3WinD0Ev
	.quad	_ZNK3MPI3Win14Set_errhandlerERKNS_10ErrhandlerE
	.quad	_ZNK3MPI3Win14Get_errhandlerEv
	.quad	_ZNK3MPI3Win10AccumulateEPKviRKNS_8DatatypeEiliS5_RKNS_2OpE
	.quad	_ZNK3MPI3Win8CompleteEv
	.quad	_ZNK3MPI3Win5FenceEi
	.quad	_ZN3MPI3Win4FreeEv
	.quad	_ZNK3MPI3Win3GetEPKviRKNS_8DatatypeEiliS5_
	.quad	_ZNK3MPI3Win9Get_groupEv
	.quad	_ZNK3MPI3Win4LockEiii
	.quad	_ZNK3MPI3Win4PostERKNS_5GroupEi
	.quad	_ZNK3MPI3Win3PutEPKviRKNS_8DatatypeEiliS5_
	.quad	_ZNK3MPI3Win5StartERKNS_5GroupEi
	.quad	_ZNK3MPI3Win4TestEv
	.quad	_ZNK3MPI3Win6UnlockEi
	.quad	_ZNK3MPI3Win4WaitEv
	.quad	_ZNK3MPI3Win15Call_errhandlerEi
	.quad	_ZN3MPI3Win11Delete_attrEi
	.quad	_ZNK3MPI3Win8Get_nameEPcRi
	.quad	_ZN3MPI3Win8Set_attrEiPKv
	.quad	_ZN3MPI3Win8Set_nameEPKc
	.local	_ZStL8__ioinit
	.comm	_ZStL8__ioinit,1,1
	.section	.rodata.cst16,"aM",@progbits,16
	.align 16
.LC0:
	.long	1
	.long	1
	.long	1
	.long	1
	.align 16
.LC1:
	.value	255
	.value	255
	.value	255
	.value	255
	.value	255
	.value	255
	.value	255
	.value	255
	.section	.rodata.cst8,"aM",@progbits,8
	.align 8
.LC4:
	.long	0
	.long	1073741824
	.section	.data.rel.ro,"aw"
	.align 8
.LC10:
	.quad	_ZTVSt14basic_ofstreamIcSt11char_traitsIcEE+24
	.weak	__cxa_pure_virtual
	.hidden	DW.ref.__gxx_personality_v0
	.weak	DW.ref.__gxx_personality_v0
	.section	.data.rel.local.DW.ref.__gxx_personality_v0,"awG",@progbits,DW.ref.__gxx_personality_v0,comdat
	.align 8
	.type	DW.ref.__gxx_personality_v0, @object
	.size	DW.ref.__gxx_personality_v0, 8
DW.ref.__gxx_personality_v0:
	.quad	__gxx_personality_v0
	.hidden	__dso_handle
	.ident	"GCC: (Ubuntu 11.4.0-1ubuntu1~22.04) 11.4.0"
	.section	.note.GNU-stack,"",@progbits
	.section	.note.gnu.property,"a"
	.align 8
	.long	1f - 0f
	.long	4f - 1f
	.long	5
0:
	.string	"GNU"
1:
	.align 8
	.long	0xc0000002
	.long	3f - 2f
2:
	.long	0x3
3:
	.align 8
4:
